###############################################################################
#                                                                             #
# IAR C/C++ Compiler V8.10.1.10194/W32 for 8051         29/Dec/2018  21:04:21 #
# Copyright 2004-2011 IAR Systems AB.                                         #
#                                                                             #
#    Core               =  plain                                              #
#    Code model         =  banked                                             #
#    Data model         =  large                                              #
#    Calling convention =  xdata reentrant                                    #
#    Constant location  =  data_rom                                           #
#    Dptr setup         =  1,16                                               #
#    Source file        =  C:\Texas Instruments\ZStack-CC2530-2.5.1a\Projects #
#                          \zstack\Samples\GenericApp\Source\DHTenddevice.c   #
#    Command line       =  -f "C:\Texas Instruments\ZStack-CC2530-2.5.1a\Proj #
#                          ects\zstack\Samples\GenericApp\CC2530DB\..\..\..\T #
#                          ools\CC2530DB\f8wEndev.cfg" (-DCPU32MHZ            #
#                          -DROOT=__near_func -DMAC_CFG_TX_DATA_MAX=3         #
#                          -DMAC_CFG_TX_MAX=6 -DMAC_CFG_RX_MAX=3) -f          #
#                          "C:\Texas Instruments\ZStack-CC2530-2.5.1a\Project #
#                          s\zstack\Samples\GenericApp\CC2530DB\..\..\..\Tool #
#                          s\CC2530DB\f8wConfig.cfg" (-DZIGBEEPRO -DSECURE=0  #
#                          -DZG_SECURE_DYNAMIC=0 -DREFLECTOR                  #
#                          -DDEFAULT_CHANLIST=0x00000800                      #
#                          -DZDAPP_CONFIG_PAN_ID=0xFFFF                       #
#                          -DNWK_START_DELAY=100 -DEXTENDED_JOINING_RANDOM_MA #
#                          SK=0x007F -DBEACON_REQUEST_DELAY=100               #
#                          -DBEACON_REQ_DELAY_MASK=0x00FF                     #
#                          -DLINK_STATUS_JITTER_MASK=0x007F                   #
#                          -DROUTE_EXPIRY_TIME=30 -DAPSC_ACK_WAIT_DURATION_PO #
#                          LLED=3000 -DNWK_INDIRECT_MSG_TIMEOUT=7             #
#                          -DMAX_RREQ_ENTRIES=8 -DAPSC_MAX_FRAME_RETRIES=3    #
#                          -DNWK_MAX_DATA_RETRIES=2                           #
#                          -DMAX_POLL_FAILURE_RETRIES=2 -DMAX_BCAST=9         #
#                          -DAPS_MAX_GROUPS=16 -DMAX_RTG_ENTRIES=40           #
#                          -DNWK_MAX_BINDING_ENTRIES=4                        #
#                          -DMAX_BINDING_CLUSTER_IDS=4 "-DDEFAULT_KEY={0x01,  #
#                          0x03, 0x05, 0x07, 0x09, 0x0B, 0x0D, 0x0F, 0x00,    #
#                          0x02, 0x04, 0x06, 0x08, 0x0A, 0x0C, 0x0D}"         #
#                          -DMAC_MAX_FRAME_SIZE=116                           #
#                          -DZDNWKMGR_MIN_TRANSMISSIONS=20 "-DCONST=const     #
#                          __code" -DGENERIC=__generic                        #
#                          -DRFD_RCVC_ALWAYS_ON=FALSE -DPOLL_RATE=1000        #
#                          -DQUEUED_POLL_RATE=100 -DRESPONSE_POLL_RATE=100)   #
#                          -DREJOIN_POLL_RATE=440 "C:\Texas                   #
#                          Instruments\ZStack-CC2530-2.5.1a\Projects\zstack\S #
#                          amples\GenericApp\Source\DHTenddevice.c" -D        #
#                          NWK_AUTO_POLL -D ZTOOL_P1 -D MT_TASK -D            #
#                          MT_SYS_FUNC -D MT_ZDO_FUNC -D LCD_SUPPORTED=DEBUG  #
#                          -D xPOWER_SAVING -D HAL_UART=TRUE -lC "C:\Texas    #
#                          Instruments\ZStack-CC2530-2.5.1a\Projects\zstack\S #
#                          amples\GenericApp\CC2530DB\EndDeviceEB\List\" -lA  #
#                          "C:\Texas Instruments\ZStack-CC2530-2.5.1a\Project #
#                          s\zstack\Samples\GenericApp\CC2530DB\EndDeviceEB\L #
#                          ist\" --diag_suppress Pe001,Pa010 -o "C:\Texas     #
#                          Instruments\ZStack-CC2530-2.5.1a\Projects\zstack\S #
#                          amples\GenericApp\CC2530DB\EndDeviceEB\Obj\" -e    #
#                          --no_code_motion --debug --core=plain --dptr=16,1  #
#                          --data_model=large --code_model=banked             #
#                          --calling_convention=xdata_reentrant               #
#                          --place_constants=data_rom --nr_virtual_regs 16    #
#                          -I "C:\Texas Instruments\ZStack-CC2530-2.5.1a\Proj #
#                          ects\zstack\Samples\GenericApp\CC2530DB\" -I       #
#                          "C:\Texas Instruments\ZStack-CC2530-2.5.1a\Project #
#                          s\zstack\Samples\GenericApp\CC2530DB\..\Source\"   #
#                          -I "C:\Texas Instruments\ZStack-CC2530-2.5.1a\Proj #
#                          ects\zstack\Samples\GenericApp\CC2530DB\..\..\..\Z #
#                          Main\TI2530DB\" -I "C:\Texas                       #
#                          Instruments\ZStack-CC2530-2.5.1a\Projects\zstack\S #
#                          amples\GenericApp\CC2530DB\..\..\..\..\..\Componen #
#                          ts\hal\include\" -I "C:\Texas                      #
#                          Instruments\ZStack-CC2530-2.5.1a\Projects\zstack\S #
#                          amples\GenericApp\CC2530DB\..\..\..\..\..\Componen #
#                          ts\hal\target\CC2530EB\" -I "C:\Texas              #
#                          Instruments\ZStack-CC2530-2.5.1a\Projects\zstack\S #
#                          amples\GenericApp\CC2530DB\..\..\..\..\..\Componen #
#                          ts\mac\include\" -I "C:\Texas                      #
#                          Instruments\ZStack-CC2530-2.5.1a\Projects\zstack\S #
#                          amples\GenericApp\CC2530DB\..\..\..\..\..\Componen #
#                          ts\mac\high_level\" -I "C:\Texas                   #
#                          Instruments\ZStack-CC2530-2.5.1a\Projects\zstack\S #
#                          amples\GenericApp\CC2530DB\..\..\..\..\..\Componen #
#                          ts\mac\low_level\srf04\" -I "C:\Texas              #
#                          Instruments\ZStack-CC2530-2.5.1a\Projects\zstack\S #
#                          amples\GenericApp\CC2530DB\..\..\..\..\..\Componen #
#                          ts\mac\low_level\srf04\single_chip\" -I "C:\Texas  #
#                          Instruments\ZStack-CC2530-2.5.1a\Projects\zstack\S #
#                          amples\GenericApp\CC2530DB\..\..\..\..\..\Componen #
#                          ts\mt\" -I "C:\Texas Instruments\ZStack-CC2530-2.5 #
#                          .1a\Projects\zstack\Samples\GenericApp\CC2530DB\.. #
#                          \..\..\..\..\Components\osal\include\" -I          #
#                          "C:\Texas Instruments\ZStack-CC2530-2.5.1a\Project #
#                          s\zstack\Samples\GenericApp\CC2530DB\..\..\..\..\. #
#                          .\Components\services\saddr\" -I "C:\Texas         #
#                          Instruments\ZStack-CC2530-2.5.1a\Projects\zstack\S #
#                          amples\GenericApp\CC2530DB\..\..\..\..\..\Componen #
#                          ts\services\sdata\" -I "C:\Texas                   #
#                          Instruments\ZStack-CC2530-2.5.1a\Projects\zstack\S #
#                          amples\GenericApp\CC2530DB\..\..\..\..\..\Componen #
#                          ts\stack\af\" -I "C:\Texas                         #
#                          Instruments\ZStack-CC2530-2.5.1a\Projects\zstack\S #
#                          amples\GenericApp\CC2530DB\..\..\..\..\..\Componen #
#                          ts\stack\nwk\" -I "C:\Texas                        #
#                          Instruments\ZStack-CC2530-2.5.1a\Projects\zstack\S #
#                          amples\GenericApp\CC2530DB\..\..\..\..\..\Componen #
#                          ts\stack\sapi\" -I "C:\Texas                       #
#                          Instruments\ZStack-CC2530-2.5.1a\Projects\zstack\S #
#                          amples\GenericApp\CC2530DB\..\..\..\..\..\Componen #
#                          ts\stack\sec\" -I "C:\Texas                        #
#                          Instruments\ZStack-CC2530-2.5.1a\Projects\zstack\S #
#                          amples\GenericApp\CC2530DB\..\..\..\..\..\Componen #
#                          ts\stack\sys\" -I "C:\Texas                        #
#                          Instruments\ZStack-CC2530-2.5.1a\Projects\zstack\S #
#                          amples\GenericApp\CC2530DB\..\..\..\..\..\Componen #
#                          ts\stack\zdo\" -I "C:\Texas                        #
#                          Instruments\ZStack-CC2530-2.5.1a\Projects\zstack\S #
#                          amples\GenericApp\CC2530DB\..\..\..\..\..\Componen #
#                          ts\zmac\" -I "C:\Texas Instruments\ZStack-CC2530-2 #
#                          .5.1a\Projects\zstack\Samples\GenericApp\CC2530DB\ #
#                          ..\..\..\..\..\Components\zmac\f8w\" -Ohz          #
#    List file          =  C:\Texas Instruments\ZStack-CC2530-2.5.1a\Projects #
#                          \zstack\Samples\GenericApp\CC2530DB\EndDeviceEB\Li #
#                          st\DHTenddevice.lst                                #
#    Object file        =  C:\Texas Instruments\ZStack-CC2530-2.5.1a\Projects #
#                          \zstack\Samples\GenericApp\CC2530DB\EndDeviceEB\Ob #
#                          j\DHTenddevice.r51                                 #
#                                                                             #
#                                                                             #
###############################################################################

C:\Texas Instruments\ZStack-CC2530-2.5.1a\Projects\zstack\Samples\GenericApp\Source\DHTenddevice.c
      1          //注意：文件hal_board_cfg.h 于2017 5 12修改了；
      2          //HAL_KEY
      3          
      4          
      5          #include <stdio.h>
      6          #include "OSAL.h"
      7          #include "AF.h"
      8          #include "ZDApp.h"
      9          #include "ZDObject.h"
     10          #include "ZDProfile.h"
     11          #include <string.h>
     12          #include <ioCC2530.h>

   \                                 In  segment SFR_AN, at 0x80
   \   union <unnamed> volatile __sfr _A_P0
   \                     _A_P0:
   \   000000                DS 1

   \                                 In  segment SFR_AN, at 0xa0
   \   union <unnamed> volatile __sfr _A_P2
   \                     _A_P2:
   \   000000                DS 1

   \                                 In  segment SFR_AN, at 0xfd
   \   unsigned char volatile __sfr P0DIR
   \                     P0DIR:
   \   000000                DS 1
     13          //#include "GenericApp.h"   
     14          #include "DebugTrace.h"
     15          
     16          #include "DHT110.h"                        //add
     17          
     18          #if !defined( WIN32 )
     19            #include "OnBoard.h"
     20          #endif
     21          
     22          /* HAL */
     23          #include "hal_lcd.h"
     24          #include "hal_led.h"
     25          #include "hal_key.h"
     26          #include "hal_uart.h"
     27          
     28          #define SEND_DATA_EVENT 0x01
     29          
     30          #define DATA_PIN P0_7
     31          
     32          void Delay_us(void); //1 us延时
     33          void Delay_10us(void); //10 us延时
     34          
     35          void COM(void); // 温湿写入
     36          void DHT11(void) ;  //温湿传感启动
     37          
     38          
     39          //吴棉达修改 #include "step.h"
     40          //吴棉达修改 #define SEND_DATA_EVENT 0x01
     41          
     42          /*吴棉达修改 typedef unsigned char uchar;
     43          typedef unsigned int  uint;
     44          
     45          #define LED1 P1_0       // P1.1口控制LED1   ??????
     46          //#define KEY1 P0_3       // P0.4口控制S1,用不到
     47          
     48          #define TX_SIZE    20
     49          
     50          #define TX_STRING  "Hello Zigbee  "
     51          
     52          void check();
     53          /****************************************************************************
                 ^
Warning[Pe009]: nested comment is not allowed
     54          * 名    称: DelayMS()
     55          * 功    能: 以毫秒为单位延时，系统时钟不配置时默认为16M(用示波器测量相当精确)
     56          * 入口参数: msec 延时参数，值越大，延时越久
     57          * 出口参数: 无
     58          ****************************************************************************/
     59          /*吴棉达修改 void DelayMS(uint msec)
     60          { 
     61              uint i,j;
     62              
     63              for (i=0; i<msec; i++)
     64                  for (j=0; j<535; j++);
     65          }
     66          
     67          /****************************************************************************
                 ^
Warning[Pe009]: nested comment is not allowed
     68          * 名    称: InitLed()
     69          * 功    能: 设置LED灯相应的IO口
     70          * 入口参数: 无
     71          * 出口参数: 无
     72          ****************************************************************************/
     73          /*吴棉达修改 void InitLed(void)
     74          {
     75            //  P1DIR |= 0x11;   //P1.4定义为输出口
     76              P1_1=0;           //与P0_4连接，控制LED3
     77              LED1 = 1;        //LED1灯上电默认为熄灭
     78          }
     79          
     80          /****************************************************************************
                 ^
Warning[Pe009]: nested comment is not allowed
     81          * 名    称: InitKey()
     82          * 功    能: 设置KEY相应的IO口,采用中断方式 
     83          * 入口参数: 无
     84          * 出口参数: 无
     85          ****************************************************************************/
     86          /*void InitKey()   //12月8日修改
     87          {
     88            P0IEN |= 0X0f;  // P0.4 设置为中断方式 
     89            PICTL |= 0X01; // 下降沿触发  
     90            IEN1 |= 0Xff;   // 允许P0口中断;
     91            P0IFG = 0x00;   // 初始化中断标志位
     92            EA = 1;        //总中断允许控制位，为1允许所有中断
     93            P2DIR  =0xFE;
     94            P2SEL  =0xFE;
     95           
     96            
     97          }*/ 
     98          
     99          

   \                                 In  segment XDATA_Z, align 1, keep-with-next
    100          uchar shidu_shi,shidu_ge,wendu_shi,wendu_ge;
   \                     shidu_shi:
   \   000000                DS 1
   \   000001                REQUIRE __INIT_XDATA_Z

   \                                 In  segment XDATA_Z, align 1, keep-with-next
   \                     shidu_ge:
   \   000000                DS 1
   \   000001                REQUIRE __INIT_XDATA_Z

   \                                 In  segment XDATA_Z, align 1, keep-with-next
   \                     wendu_shi:
   \   000000                DS 1
   \   000001                REQUIRE __INIT_XDATA_Z

   \                                 In  segment XDATA_Z, align 1, keep-with-next
   \                     wendu_ge:
   \   000000                DS 1
   \   000001                REQUIRE __INIT_XDATA_Z

   \                                 In  segment XDATA_Z, align 1, keep-with-next
    101          uchar ucharFLAG,uchartemp;
   \                     ucharFLAG:
   \   000000                DS 1
   \   000001                REQUIRE __INIT_XDATA_Z

   \                                 In  segment XDATA_Z, align 1, keep-with-next
   \                     uchartemp:
   \   000000                DS 1
   \   000001                REQUIRE __INIT_XDATA_Z
    102          

   \                                 In  segment XDATA_Z, align 1, keep-with-next
    103          uchar ucharT_data_H,ucharT_data_L,ucharRH_data_H,ucharRH_data_L,ucharcheckdata;
   \                     ucharT_data_H:
   \   000000                DS 1
   \   000001                REQUIRE __INIT_XDATA_Z

   \                                 In  segment XDATA_Z, align 1, keep-with-next
   \                     ucharT_data_L:
   \   000000                DS 1
   \   000001                REQUIRE __INIT_XDATA_Z

   \                                 In  segment XDATA_Z, align 1, keep-with-next
   \                     ucharRH_data_H:
   \   000000                DS 1
   \   000001                REQUIRE __INIT_XDATA_Z

   \                                 In  segment XDATA_Z, align 1, keep-with-next
   \                     ucharRH_data_L:
   \   000000                DS 1
   \   000001                REQUIRE __INIT_XDATA_Z

   \                                 In  segment XDATA_Z, align 1, keep-with-next
   \                     ucharcheckdata:
   \   000000                DS 1
   \   000001                REQUIRE __INIT_XDATA_Z

   \                                 In  segment XDATA_Z, align 1, keep-with-next
    104          uchar ucharT_data_H_temp,ucharT_data_L_temp,ucharRH_data_H_temp,ucharRH_data_L_temp,ucharcheckdata_temp;
   \                     ucharT_data_H_temp:
   \   000000                DS 1
   \   000001                REQUIRE __INIT_XDATA_Z

   \                                 In  segment XDATA_Z, align 1, keep-with-next
   \                     ucharT_data_L_temp:
   \   000000                DS 1
   \   000001                REQUIRE __INIT_XDATA_Z

   \                                 In  segment XDATA_Z, align 1, keep-with-next
   \                     ucharRH_data_H_temp:
   \   000000                DS 1
   \   000001                REQUIRE __INIT_XDATA_Z

   \                                 In  segment XDATA_Z, align 1, keep-with-next
   \                     ucharRH_data_L_temp:
   \   000000                DS 1
   \   000001                REQUIRE __INIT_XDATA_Z

   \                                 In  segment XDATA_Z, align 1, keep-with-next
   \                     ucharcheckdata_temp:
   \   000000                DS 1
   \   000001                REQUIRE __INIT_XDATA_Z

   \                                 In  segment XDATA_Z, align 1, keep-with-next
    105          uchar ucharcomdata;
   \                     ucharcomdata:
   \   000000                DS 1
   \   000001                REQUIRE __INIT_XDATA_Z
    106          //--------------------------------
    107          //-----湿度读取子程序 ------------
    108          //--------------------------------
    109          //----以下变量均为全局变量--------
    110          //----温度高8位== U8T_data_H------
    111          //----温度低8位== U8T_data_L------
    112          //----湿度高8位== U8RH_data_H-----
    113          //----湿度低8位== U8RH_data_L-----
    114          //----校验 8位 == U8checkdata-----
    115          //----调用相关子程序如下----------
    116          //---- Delay();, Delay_10us();,COM(); 
    117          //--------------------------------
    118          
    119          //延时函数

   \                                 In  segment BANKED_CODE, align 1, keep-with-next
    120          void Delay_us() //1 us延时
   \                     Delay_us:
    121          {
   \   000000   C082         PUSH    DPL
   \   000002   C083         PUSH    DPH
   \   000004                ; Saved register size: 2
   \   000004                ; Auto size: 0
    122          
    123             // int i;
    124             // for(i=0;i<9;i++)
    125             // asm("nop"); 
    126              MicroWait(1); 
   \   000004                ; Setup parameters for call to function Onboard_wait
   \   000004   7A01         MOV     R2,#0x1
   \   000006                REQUIRE ?Subroutine0
   \   000006                ; // Fall through to label ?Subroutine0
    127          
    128          }

   \                                 In  segment BANKED_CODE, align 1, keep-with-next
   \                     ?Subroutine0:
   \   000000   7B00         MOV     R3,#0x0
   \   000002   12....       LCALL   ??Onboard_wait?relay
   \   000005                REQUIRE ??Subroutine7_0
   \   000005                ; // Fall through to label ??Subroutine7_0

   \                                 In  segment BANKED_CODE, align 1, keep-with-next
   \                     ??Subroutine7_0:
   \   000000   D083         POP     DPH
   \   000002   D082         POP     DPL
   \   000004   02....       LJMP    ?BRET

   \                                 In  segment BANKED_CODE, align 1, keep-with-next
    129          void Delay_10us() //10 us延时
   \                     Delay_10us:
    130          {
   \   000000   C082         PUSH    DPL
   \   000002   C083         PUSH    DPH
   \   000004                ; Saved register size: 2
   \   000004                ; Auto size: 0
    131            //int i;
    132          
    133            //for(i=0;i<10;i++)
    134            //Delay_us();   
    135            MicroWait(10);
   \   000004                ; Setup parameters for call to function Onboard_wait
   \   000004   7A0A         MOV     R2,#0xa
   \   000006   80..         SJMP    ?Subroutine0
    136          }
    137          

   \                                 In  segment BANKED_CODE, align 1, keep-with-next
    138          void Delay_ms(uint Time)//n ms延时
   \                     Delay_ms:
    139          {
   \   000000   74F7         MOV     A,#-0x9
   \   000002   12....       LCALL   ?BANKED_ENTER_XDATA
   \   000005                ; Saved register size: 9
   \   000005                ; Auto size: 0
   \   000005   EA           MOV     A,R2
   \   000006   FE           MOV     R6,A
   \   000007   EB           MOV     A,R3
   \   000008   FF           MOV     R7,A
    140              unsigned char i;
    141              while(Time--)
   \                     ??Delay_ms_0:
   \   000009   EE           MOV     A,R6
   \   00000A   F8           MOV     R0,A
   \   00000B   EF           MOV     A,R7
   \   00000C   F9           MOV     R1,A
   \   00000D   E8           MOV     A,R0
   \   00000E   24FF         ADD     A,#-0x1
   \   000010   1E           DEC     R6
   \   000011   E9           MOV     A,R1
   \   000012   34FF         ADDC    A,#-0x1
   \   000014   FF           MOV     R7,A
   \   000015   E8           MOV     A,R0
   \   000016   49           ORL     A,R1
   \   000017   6012         JZ      ??Delay_ms_1
    142              {
    143                  for(i=0;i<100;i++)
   \   000019   75..64       MOV     ?V0 + 0,#0x64
    144                      Delay_10us();
   \                     ??Delay_ms_2:
   \   00001C                ; Setup parameters for call to function Onboard_wait
   \   00001C   7A0A         MOV     R2,#0xa
   \   00001E   7B00         MOV     R3,#0x0
   \   000020   12....       LCALL   ??Onboard_wait?relay
   \   000023   15..         DEC     ?V0 + 0
   \   000025   E5..         MOV     A,?V0 + 0
   \   000027   60E0         JZ      ??Delay_ms_0
   \   000029   80F1         SJMP    ??Delay_ms_2
    145              }
    146          }
   \                     ??Delay_ms_1:
   \   00002B                REQUIRE ?Subroutine1
   \   00002B                ; // Fall through to label ?Subroutine1

   \                                 In  segment BANKED_CODE, align 1, keep-with-next
   \                     ?Subroutine1:
   \   000000   7F01         MOV     R7,#0x1
   \   000002   02....       LJMP    ?BANKED_LEAVE_XDATA
    147          
    148          //温湿度传感

   \                                 In  segment BANKED_CODE, align 1, keep-with-next
    149          void COM(void)    // 温湿写入
   \                     COM:
    150          {     
   \   000000   74F7         MOV     A,#-0x9
   \   000002   12....       LCALL   ?BANKED_ENTER_XDATA
   \   000005                ; Saved register size: 9
   \   000005                ; Auto size: 0
    151              uchar i;         
    152              for(i=0;i<8;i++)    
   \   000005   7E08         MOV     R6,#0x8
    153              {
    154                  ucharFLAG=2; 
   \                     ??COM_0:
   \   000007   90....       MOV     DPTR,#ucharFLAG
   \   00000A   7402         MOV     A,#0x2
   \   00000C   F0           MOVX    @DPTR,A
    155                  while((!DATA_PIN)&&ucharFLAG++);
   \                     ??COM_1:
   \   00000D   A287         MOV     C,0x80.7
   \   00000F   4005         JC      ??COM_2
   \   000011   12....       LCALL   ?Subroutine4 & 0xFFFF
   \                     ??CrossCallReturnLabel_6:
   \   000014   70F7         JNZ     ??COM_1
    156                  Delay_10us();
   \                     ??COM_2:
   \   000016                ; Setup parameters for call to function Onboard_wait
   \   000016   12....       LCALL   ?Subroutine2 & 0xFFFF
    157                  Delay_10us();
    158                  Delay_10us();
    159                  uchartemp=0;
   \                     ??CrossCallReturnLabel_0:
   \   000019   90....       MOV     DPTR,#uchartemp
   \   00001C   E4           CLR     A
   \   00001D   F0           MOVX    @DPTR,A
    160                  if(DATA_PIN)uchartemp=1;//如果超过30us还没置0，则数据为1，置0，则数据为0
   \   00001E   A287         MOV     C,0x80.7
   \   000020   5002         JNC     ??COM_3
   \   000022   04           INC     A
   \   000023   F0           MOVX    @DPTR,A
    161                  ucharFLAG=2;
   \                     ??COM_3:
   \   000024   90....       MOV     DPTR,#ucharFLAG
   \   000027   7402         MOV     A,#0x2
   \   000029   F0           MOVX    @DPTR,A
    162                  while((DATA_PIN)&&ucharFLAG++); //等待置0  
   \                     ??COM_4:
   \   00002A   A287         MOV     C,0x80.7
   \   00002C   5005         JNC     ??COM_5
   \   00002E   12....       LCALL   ?Subroutine4 & 0xFFFF
   \                     ??CrossCallReturnLabel_7:
   \   000031   70F7         JNZ     ??COM_4
    163                  if(ucharFLAG==1)break;    
   \                     ??COM_5:
   \   000033   E0           MOVX    A,@DPTR
   \   000034   6401         XRL     A,#0x1
   \   000036   601B         JZ      ??COM_6
    164                  ucharcomdata<<=1;//ucharcomdata左移一位赋值给ucharcomdata
    165                  ucharcomdata|=uchartemp;//两句合起来就是给最高位赋值
   \   000038   90....       MOV     DPTR,#uchartemp
   \   00003B   C082         PUSH    DPL
   \   00003D   90....       MOV     DPTR,#ucharcomdata
   \   000040   E0           MOVX    A,@DPTR
   \   000041   C3           CLR     C
   \   000042   33           RLC     A
   \   000043   7583..       MOV     DPH,#(uchartemp >> 8) & 0xff
   \   000046   D082         POP     DPL
   \   000048   F8           MOV     R0,A
   \   000049   E0           MOVX    A,@DPTR
   \   00004A   48           ORL     A,R0
   \   00004B   90....       MOV     DPTR,#ucharcomdata
   \   00004E   F0           MOVX    @DPTR,A
    166              }    
   \   00004F   1E           DEC     R6
   \   000050   EE           MOV     A,R6
   \   000051   70B4         JNZ     ??COM_0
    167          }
   \                     ??COM_6:
   \   000053   80..         SJMP    ?Subroutine1
   \   000055                REQUIRE _A_P0

   \                                 In  segment BANKED_CODE, align 1, keep-with-next
   \                     ?Subroutine4:
   \   000000   E0           MOVX    A,@DPTR
   \   000001   F8           MOV     R0,A
   \   000002   7401         MOV     A,#0x1
   \   000004   28           ADD     A,R0
   \   000005   F0           MOVX    @DPTR,A
   \   000006   E8           MOV     A,R0
   \   000007   22           RET

   \                                 In  segment BANKED_CODE, align 1, keep-with-next
   \                     ?Subroutine2:
   \   000000   7A0A         MOV     R2,#0xa
   \   000002   7B00         MOV     R3,#0x0
   \   000004   12....       LCALL   ??Onboard_wait?relay
   \   000007                ; Setup parameters for call to function Onboard_wait
   \   000007                ; Setup parameters for call to function Onboard_wait
   \   000007   7A0A         MOV     R2,#0xa
   \   000009   7B00         MOV     R3,#0x0
   \   00000B   12....       LCALL   ??Onboard_wait?relay
   \   00000E                ; Setup parameters for call to function Onboard_wait
   \   00000E                ; Setup parameters for call to function Onboard_wait
   \   00000E   7A0A         MOV     R2,#0xa
   \   000010   7B00         MOV     R3,#0x0
   \   000012   12....       LCALL   ??Onboard_wait?relay
   \   000015   22           RET
    168          

   \                                 In  segment BANKED_CODE, align 1, keep-with-next
    169          void DHT11(void)   //温湿传感启动
   \                     DHT11:
    170          {
   \   000000   C082         PUSH    DPL
   \   000002   C083         PUSH    DPH
   \   000004                ; Saved register size: 2
   \   000004                ; Auto size: 0
    171              DATA_PIN=0;//置低电平
   \   000004   C287         CLR     0x80.7
    172              Delay_ms(19);  //>18MS
   \   000006                ; Setup parameters for call to function Delay_ms
   \   000006   7A13         MOV     R2,#0x13
   \   000008   7B00         MOV     R3,#0x0
   \   00000A   12....       LCALL   ??Delay_ms?relay
    173              DATA_PIN=1; //置高电平，开始信号发送结束
   \   00000D   D287         SETB    0x80.7
    174              P0DIR &= ~0x80; //重新配置IO口方向，输入
   \   00000F   53FD7F       ANL     0xfd,#0x7f
    175              Delay_10us();
   \   000012                ; Setup parameters for call to function Onboard_wait
   \   000012   12....       LCALL   ?Subroutine2 & 0xFFFF
    176              Delay_10us();                        
    177              Delay_10us();
    178              Delay_10us();  //高电平，延时40us等待
   \                     ??CrossCallReturnLabel_1:
   \   000015                ; Setup parameters for call to function Onboard_wait
   \   000015   7A0A         MOV     R2,#0xa
   \   000017   7B00         MOV     R3,#0x0
   \   000019   12....       LCALL   ??Onboard_wait?relay
    179              if(!DATA_PIN) //如果电平变低，则证明检测到开始信号
   \   00001C   A287         MOV     C,0x80.7
   \   00001E   5003         JNC     $+5
   \   000020   02....       LJMP    ??DHT11_0 & 0xFFFF
    180              {
    181                  ucharFLAG=2; 
   \   000023   90....       MOV     DPTR,#ucharFLAG
   \   000026   7402         MOV     A,#0x2
   \   000028   F0           MOVX    @DPTR,A
    182                  while((!DATA_PIN)&&ucharFLAG++);//低电平，等待响应结束
   \                     ??DHT11_1:
   \   000029   A287         MOV     C,0x80.7
   \   00002B   4005         JC      ??DHT11_2
   \   00002D   12....       LCALL   ?Subroutine4 & 0xFFFF
   \                     ??CrossCallReturnLabel_8:
   \   000030   70F7         JNZ     ??DHT11_1
    183                  ucharFLAG=2;
   \                     ??DHT11_2:
   \   000032   7402         MOV     A,#0x2
   \   000034   F0           MOVX    @DPTR,A
    184                  while((DATA_PIN)&&ucharFLAG++); //高电平，准备输出
   \                     ??DHT11_3:
   \   000035   A287         MOV     C,0x80.7
   \   000037   5005         JNC     ??DHT11_4
   \   000039   12....       LCALL   ?Subroutine4 & 0xFFFF
   \                     ??CrossCallReturnLabel_9:
   \   00003C   70F7         JNZ     ??DHT11_3
    185                  COM();
   \                     ??DHT11_4:
   \   00003E                ; Setup parameters for call to function COM
   \   00003E   12....       LCALL   ??COM?relay
    186                  ucharRH_data_H_temp=ucharcomdata;//湿度高八位
   \   000041   90....       MOV     DPTR,#ucharcomdata
   \   000044   E0           MOVX    A,@DPTR
   \   000045   90....       MOV     DPTR,#ucharRH_data_H_temp
   \   000048   12....       LCALL   ?Subroutine3 & 0xFFFF
    187                  COM();
    188                  ucharRH_data_L_temp=ucharcomdata;//湿度低八位
   \                     ??CrossCallReturnLabel_2:
   \   00004B   90....       MOV     DPTR,#ucharRH_data_L_temp
   \   00004E   12....       LCALL   ?Subroutine3 & 0xFFFF
    189                  COM();
    190                  ucharT_data_H_temp=ucharcomdata;//温度高八位
   \                     ??CrossCallReturnLabel_3:
   \   000051   90....       MOV     DPTR,#ucharT_data_H_temp
   \   000054   12....       LCALL   ?Subroutine3 & 0xFFFF
    191                  COM();
    192                  ucharT_data_L_temp=ucharcomdata;//温度低八位
   \                     ??CrossCallReturnLabel_4:
   \   000057   90....       MOV     DPTR,#ucharT_data_L_temp
   \   00005A   12....       LCALL   ?Subroutine3 & 0xFFFF
    193                  COM();
    194                  ucharcheckdata_temp=ucharcomdata;//校验八位
   \                     ??CrossCallReturnLabel_5:
   \   00005D   90....       MOV     DPTR,#ucharcheckdata_temp
   \   000060   F0           MOVX    @DPTR,A
    195                  DATA_PIN=1; //置高，空闲状态
   \   000061   D287         SETB    0x80.7
    196                  uchartemp=(ucharT_data_H_temp+ucharT_data_L_temp+ucharRH_data_H_temp+ucharRH_data_L_temp);
   \   000063   90....       MOV     DPTR,#ucharRH_data_L_temp
   \   000066   C082         PUSH    DPL
   \   000068   C083         PUSH    DPH
   \   00006A   90....       MOV     DPTR,#ucharRH_data_H_temp
   \   00006D   C082         PUSH    DPL
   \   00006F   C083         PUSH    DPH
   \   000071   90....       MOV     DPTR,#ucharT_data_L_temp
   \   000074   C082         PUSH    DPL
   \   000076   90....       MOV     DPTR,#ucharT_data_H_temp
   \   000079   E0           MOVX    A,@DPTR
   \   00007A   7583..       MOV     DPH,#(ucharT_data_L_temp >> 8) & 0xff
   \   00007D   D082         POP     DPL
   \   00007F   F8           MOV     R0,A
   \   000080   E0           MOVX    A,@DPTR
   \   000081   28           ADD     A,R0
   \   000082   D083         POP     DPH
   \   000084   D082         POP     DPL
   \   000086   F8           MOV     R0,A
   \   000087   E0           MOVX    A,@DPTR
   \   000088   28           ADD     A,R0
   \   000089   D083         POP     DPH
   \   00008B   D082         POP     DPL
   \   00008D   F8           MOV     R0,A
   \   00008E   E0           MOVX    A,@DPTR
   \   00008F   28           ADD     A,R0
   \   000090   90....       MOV     DPTR,#uchartemp
   \   000093   F0           MOVX    @DPTR,A
    197                  if(uchartemp==ucharcheckdata_temp)//校验
   \   000094   F8           MOV     R0,A
   \   000095   90....       MOV     DPTR,#ucharcheckdata_temp
   \   000098   E0           MOVX    A,@DPTR
   \   000099   68           XRL     A,R0
   \   00009A   7028         JNZ     ??DHT11_5
    198                  {
    199                      ucharRH_data_H=ucharRH_data_H_temp;
   \   00009C   90....       MOV     DPTR,#ucharRH_data_H_temp
   \   00009F   E0           MOVX    A,@DPTR
   \   0000A0   90....       MOV     DPTR,#ucharRH_data_H
   \   0000A3   F0           MOVX    @DPTR,A
    200                      ucharRH_data_L=ucharRH_data_L_temp;
   \   0000A4   90....       MOV     DPTR,#ucharRH_data_L_temp
   \   0000A7   E0           MOVX    A,@DPTR
   \   0000A8   90....       MOV     DPTR,#ucharRH_data_L
   \   0000AB   F0           MOVX    @DPTR,A
    201                      ucharT_data_H=ucharT_data_H_temp;
   \   0000AC   90....       MOV     DPTR,#ucharT_data_H_temp
   \   0000AF   E0           MOVX    A,@DPTR
   \   0000B0   90....       MOV     DPTR,#ucharT_data_H
   \   0000B3   F0           MOVX    @DPTR,A
    202                      ucharT_data_L=ucharT_data_L_temp;
   \   0000B4   90....       MOV     DPTR,#ucharT_data_L_temp
   \   0000B7   E0           MOVX    A,@DPTR
   \   0000B8   90....       MOV     DPTR,#ucharT_data_L
   \   0000BB   F0           MOVX    @DPTR,A
    203                      ucharcheckdata=ucharcheckdata_temp;
   \   0000BC   90....       MOV     DPTR,#ucharcheckdata_temp
   \   0000BF   E0           MOVX    A,@DPTR
   \   0000C0   90....       MOV     DPTR,#ucharcheckdata
   \   0000C3   F0           MOVX    @DPTR,A
    204                  }
    205                  wendu_shi=ucharT_data_H/10; 
   \                     ??DHT11_5:
   \   0000C4   75F00A       MOV     B,#0xa
   \   0000C7   90....       MOV     DPTR,#ucharT_data_H
   \   0000CA   E0           MOVX    A,@DPTR
   \   0000CB   84           DIV     AB
   \   0000CC   90....       MOV     DPTR,#wendu_shi
   \   0000CF   F0           MOVX    @DPTR,A
    206                  wendu_ge=ucharT_data_H%10;
   \   0000D0   90....       MOV     DPTR,#ucharT_data_H
   \   0000D3   12....       LCALL   ?Subroutine6 & 0xFFFF
   \                     ??CrossCallReturnLabel_12:
   \   0000D6   90....       MOV     DPTR,#wendu_ge
   \   0000D9   F0           MOVX    @DPTR,A
    207                  
    208                  shidu_shi=ucharRH_data_H/10; 
   \   0000DA   75F00A       MOV     B,#0xa
   \   0000DD   90....       MOV     DPTR,#ucharRH_data_H
   \   0000E0   E0           MOVX    A,@DPTR
   \   0000E1   84           DIV     AB
   \   0000E2   90....       MOV     DPTR,#shidu_shi
   \   0000E5   F0           MOVX    @DPTR,A
    209                  shidu_ge=ucharRH_data_H%10;        
   \   0000E6   90....       MOV     DPTR,#ucharRH_data_H
   \   0000E9   12....       LCALL   ?Subroutine6 & 0xFFFF
    210              } 
   \                     ??CrossCallReturnLabel_13:
   \   0000EC   800D         SJMP    ??DHT11_6
    211              else //没用成功读取，返回0
    212              {
    213                  wendu_shi=0; 
   \                     ??DHT11_0:
   \   0000EE   90....       MOV     DPTR,#wendu_shi
   \   0000F1   E4           CLR     A
   \   0000F2   F0           MOVX    @DPTR,A
    214                  wendu_ge=0;
   \   0000F3   90....       MOV     DPTR,#wendu_ge
   \   0000F6   F0           MOVX    @DPTR,A
    215                  
    216                  shidu_shi=0; 
   \   0000F7   90....       MOV     DPTR,#shidu_shi
   \   0000FA   F0           MOVX    @DPTR,A
    217                  shidu_ge=0;  
   \                     ??DHT11_6:
   \   0000FB   90....       MOV     DPTR,#shidu_ge
   \   0000FE   F0           MOVX    @DPTR,A
    218              } 
    219              
    220              P0DIR |= 0x80; //IO口需要重新配置 
   \   0000FF   43FD80       ORL     0xfd,#0x80
    221          }
   \   000102   02....       LJMP    ??Subroutine7_0 & 0xFFFF
   \   000105                REQUIRE _A_P0
   \   000105                REQUIRE P0DIR

   \                                 In  segment BANKED_CODE, align 1, keep-with-next
   \                     ?Subroutine3:
   \   000000   F0           MOVX    @DPTR,A
   \   000001                ; Setup parameters for call to function COM
   \   000001                ; Setup parameters for call to function COM
   \   000001                ; Setup parameters for call to function COM
   \   000001                ; Setup parameters for call to function COM
   \   000001   12....       LCALL   ??COM?relay
   \   000004   90....       MOV     DPTR,#ucharcomdata
   \   000007   E0           MOVX    A,@DPTR
   \   000008   22           RET

   \                                 In  segment BANKED_CODE, align 1, keep-with-next
   \                     ?Subroutine6:
   \   000000   E0           MOVX    A,@DPTR
   \   000001   75F00A       MOV     B,#0xa
   \   000004   84           DIV     AB
   \   000005   E5F0         MOV     A,B
   \   000007   22           RET
    222          
    223          // This list should be filled with Application specific Cluster IDs.

   \                                 In  segment XDATA_ROM_C, align 1
    224          const cId_t GenericApp_ClusterList[GENERICAPP_MAX_CLUSTERS] =
   \                     GenericApp_ClusterList:
   \   000000   0100         DW 1
    225          {
    226            GENERICAPP_CLUSTERID
    227          };
    228          

   \                                 In  segment XDATA_ROM_C, align 1
    229          const SimpleDescriptionFormat_t GenericApp_SimpleDesc =
   \                     GenericApp_SimpleDesc:
   \   000000   0A           DB 10
   \   000001   040F         DW 3844
   \   000003   0100         DW 1
   \   000005   00           DB 0
   \   000006   00           DB 0
   \   000007   0000         DW 0H
   \   000009   01           DB 1
   \   00000A   ....         DW GenericApp_ClusterList
    230          {
    231            GENERICAPP_ENDPOINT,              //  int Endpoint;
    232            GENERICAPP_PROFID,                //  uint16 AppProfId[2];
    233            GENERICAPP_DEVICEID,              //  uint16 AppDeviceId[2];
    234            GENERICAPP_DEVICE_VERSION,        //  int   AppDevVer:4;
    235            GENERICAPP_FLAGS,                 //  int   AppFlags:4;
    236              0,
    237            (cId_t *)NULL,   //  改 byte *pAppInClusterList;
    238            GENERICAPP_MAX_CLUSTERS,          //  byte  AppNumInClusters;//输入簇ID的个数 
    239            (cId_t *)GenericApp_ClusterList,  //  byte *pAppInClusterList;
    240          
    241          };
    242          
    243          // This is the Endpoint/Interface description.  It is defined here, but
    244          // filled-in in GenericApp_Init().  Another way to go would be to fill
    245          // in the structure here and make it a "const" (in code space).  The
    246          // way it's defined in this sample app it is define in RAM.

   \                                 In  segment XDATA_Z, align 1, keep-with-next
    247          endPointDesc_t GenericApp_epDesc;
   \                     GenericApp_epDesc:
   \   000000                DS 6
   \   000006                REQUIRE __INIT_XDATA_Z

   \                                 In  segment XDATA_Z, align 1, keep-with-next
    248          byte GenericApp_TaskID;   
   \                     GenericApp_TaskID:
   \   000000                DS 1
   \   000001                REQUIRE __INIT_XDATA_Z

   \                                 In  segment XDATA_Z, align 1, keep-with-next
    249          byte GenericApp_TransID;  // This is the unique message ID (counter)
   \                     GenericApp_TransID:
   \   000000                DS 1
   \   000001                REQUIRE __INIT_XDATA_Z
    250          

   \                                 In  segment XDATA_Z, align 1, keep-with-next
    251          devStates_t GenericApp_NwkState;//用于保存节点状态信息
   \                     GenericApp_NwkState:
   \   000000                DS 1
   \   000001                REQUIRE __INIT_XDATA_Z
    252          
    253          void GenericApp_MessageMSGCB( afIncomingMSGPacket_t *pckt );//消息处理函数
    254          void GenericApp_SendTheMessage( void );
    255          

   \                                 In  segment BANKED_CODE, align 1, keep-with-next
    256          void GenericApp_Init( byte task_id )
   \                     GenericApp_Init:
    257          {
   \   000000   74F7         MOV     A,#-0x9
   \   000002   12....       LCALL   ?BANKED_ENTER_XDATA
   \   000005                ; Saved register size: 9
   \   000005                ; Auto size: 0
   \   000005   E9           MOV     A,R1
    258             
    259           
    260            
    261            GenericApp_TaskID = task_id;
   \   000006   90....       MOV     DPTR,#GenericApp_TaskID
   \   000009   F0           MOVX    @DPTR,A
    262            GenericApp_NwkState = DEV_INIT;//节点状态初始化为DEV_INIT，表示未连接到zigbee上
   \   00000A   90....       MOV     DPTR,#GenericApp_NwkState
   \   00000D   7401         MOV     A,#0x1
   \   00000F   F0           MOVX    @DPTR,A
    263            GenericApp_TransID = 0;
   \   000010   90....       MOV     DPTR,#GenericApp_TransID
   \   000013   E4           CLR     A
   \   000014   F0           MOVX    @DPTR,A
    264           
    265            GenericApp_epDesc.endPoint = GENERICAPP_ENDPOINT;
   \   000015   90....       MOV     DPTR,#GenericApp_epDesc
   \   000018   740A         MOV     A,#0xa
   \   00001A   F0           MOVX    @DPTR,A
    266            GenericApp_epDesc.task_id = &GenericApp_TaskID;
   \   00001B   A3           INC     DPTR
   \   00001C   74..         MOV     A,#GenericApp_TaskID & 0xff
   \   00001E   F0           MOVX    @DPTR,A
   \   00001F   A3           INC     DPTR
   \   000020   74..         MOV     A,#(GenericApp_TaskID >> 8) & 0xff
   \   000022   F0           MOVX    @DPTR,A
    267            GenericApp_epDesc.simpleDesc
    268                      = (SimpleDescriptionFormat_t *)&GenericApp_SimpleDesc;
   \   000023   A3           INC     DPTR
   \   000024   74..         MOV     A,#GenericApp_SimpleDesc & 0xff
   \   000026   F0           MOVX    @DPTR,A
   \   000027   A3           INC     DPTR
   \   000028   74..         MOV     A,#(GenericApp_SimpleDesc >> 8) & 0xff
   \   00002A   F0           MOVX    @DPTR,A
    269            GenericApp_epDesc.latencyReq = noLatencyReqs;
   \   00002B   A3           INC     DPTR
   \   00002C   E4           CLR     A
   \   00002D   F0           MOVX    @DPTR,A
    270          
    271            // Register the endpoint description with the AF
    272            afRegister( &GenericApp_epDesc );
   \   00002E                ; Setup parameters for call to function afRegister
   \   00002E   7A..         MOV     R2,#GenericApp_epDesc & 0xff
   \   000030   7B..         MOV     R3,#(GenericApp_epDesc >> 8) & 0xff
   \   000032   12....       LCALL   ??afRegister?relay
    273            
    274            //P2_2=1;
    275           // P2_0=0;
    276            
    277            //吴棉达修改 InitLed();   //设置LED灯相应的IO口
    278           //   InitKey();   //设置S1相应的IO口
    279           // P1_0=0;
    280            // MicroWait(1000);
    281            //P1_2=1;
    282             /*延时函数
    283          void Delay_us() //1 us延时
    284          {
    285          
    286             // int i;
    287             // for(i=0;i<9;i++)
    288             // asm("nop"); 
    289              MicroWait(1); 
    290          
    291          }
    292          void Delay_10us() //10 us延时
    293          {
    294            //int i;
    295          
    296            //for(i=0;i<10;i++)
    297            //Delay_us();   
    298            MicroWait(1);
    299          }
    300          
    301          void Delay_ms(uint Time)//n ms延时
    302          {
    303              unsigned char i;
    304              while(Time--)
    305              {
    306                  for(i=0;i<100;i++)
    307                      Delay_10us();
    308              }
    309          }
    310             */
    311           // Delay_ms(1000);
    312           
    313            //P1_0=1;
    314            //P1_2=0;
    315            //Delay_ms(1000);
    316            
    317            //P1_0=0;
    318            //P1_2=1;
    319             //Delay_ms();
    320             
    321          }
   \   000035   02....       LJMP    ?Subroutine1 & 0xFFFF
    322          

   \                                 In  segment BANKED_CODE, align 1, keep-with-next
    323          UINT16 GenericApp_ProcessEvent( byte task_id, UINT16 events )
   \                     GenericApp_ProcessEvent:
    324          {
   \   000000   74F4         MOV     A,#-0xc
   \   000002   12....       LCALL   ?BANKED_ENTER_XDATA
   \   000005                ; Saved register size: 12
   \   000005                ; Auto size: 0
   \   000005   EA           MOV     A,R2
   \   000006   FE           MOV     R6,A
   \   000007   EB           MOV     A,R3
   \   000008   FF           MOV     R7,A
    325            afIncomingMSGPacket_t *MSGpkt;
    326            //afDataConfirm_t *afDataConfirm;
    327          
    328            // Data Confirmation message fields
    329            //byte sentEP;
    330            //ZStatus_t sentStatus;
    331            //byte sentTransID;       // This should match the value sent
    332            //(void)task_id;  // Intentionally unreferenced parameter
    333          
    334            if ( events & SYS_EVENT_MSG )
   \   000009   5480         ANL     A,#0x80
   \   00000B   6044         JZ      ??GenericApp_ProcessEvent_0
    335            {
    336              MSGpkt = (afIncomingMSGPacket_t *)osal_msg_receive( GenericApp_TaskID );
   \   00000D                ; Setup parameters for call to function osal_msg_receive
   \   00000D   8028         SJMP    ??GenericApp_ProcessEvent_1
    337              //读取节点的设备类型
    338              while ( MSGpkt )
    339              {
    340                switch ( MSGpkt->hdr.event )
   \                     ??GenericApp_ProcessEvent_2:
   \   00000F   85..82       MOV     DPL,?V0 + 0
   \   000012   85..83       MOV     DPH,?V0 + 1
   \   000015   E0           MOVX    A,@DPTR
   \   000016   64D1         XRL     A,#0xd1
   \   000018   7016         JNZ     ??GenericApp_ProcessEvent_3
    341                {
    342                  
    343                  case ZDO_STATE_CHANGE://网络状态发生变化
    344                    //HalLedBlink(HAL_LED_1,0,50,500);
    345                    GenericApp_NwkState = (devStates_t)(MSGpkt->hdr.status);
   \   00001A   A3           INC     DPTR
   \   00001B   E0           MOVX    A,@DPTR
   \   00001C   90....       MOV     DPTR,#GenericApp_NwkState
   \   00001F   F0           MOVX    @DPTR,A
    346                    if (GenericApp_NwkState == DEV_END_DEVICE )//
   \   000020   6406         XRL     A,#0x6
   \   000022   700C         JNZ     ??GenericApp_ProcessEvent_3
    347                    {
    348                      // Start sending "the" message in a regular interval.
    349                      //GenericApp_SendTheMessage();
    350                      osal_set_event(GenericApp_TaskID,SEND_DATA_EVENT);
   \   000024                ; Setup parameters for call to function osal_set_event
   \   000024   7A01         MOV     R2,#0x1
   \   000026   7B00         MOV     R3,#0x0
   \   000028   90....       MOV     DPTR,#GenericApp_TaskID
   \   00002B   E0           MOVX    A,@DPTR
   \   00002C   F9           MOV     R1,A
   \   00002D   12....       LCALL   ??osal_set_event?relay
    351                    }
    352                 /*   break;
    353                  case AF_INCOMING_MSG_CMD://是指的收到从其他节点应用层发给自己的数据包
    354                     GenericApp_MessageMSGCB( MSGpkt );
    355                    */
    356                  break;
    357                  
    358                  default:
    359                    break;
    360                }
    361          
    362                // Release the memory
    363                osal_msg_deallocate( (uint8 *)MSGpkt );
   \                     ??GenericApp_ProcessEvent_3:
   \   000030                ; Setup parameters for call to function osal_msg_deallocate
   \   000030   AA..         MOV     R2,?V0 + 0
   \   000032   AB..         MOV     R3,?V0 + 1
   \   000034   12....       LCALL   ??osal_msg_deallocate?relay
    364          
    365                // Next
    366                MSGpkt = (afIncomingMSGPacket_t *)osal_msg_receive( GenericApp_TaskID );
   \   000037                ; Setup parameters for call to function osal_msg_receive
   \                     ??GenericApp_ProcessEvent_1:
   \   000037   90....       MOV     DPTR,#GenericApp_TaskID
   \   00003A   E0           MOVX    A,@DPTR
   \   00003B   F9           MOV     R1,A
   \   00003C   12....       LCALL   ??osal_msg_receive?relay
   \   00003F   8A..         MOV     ?V0 + 0,R2
   \   000041   8B..         MOV     ?V0 + 1,R3
    367              }
   \   000043   E5..         MOV     A,?V0 + 0
   \   000045   45..         ORL     A,?V0 + 1
   \   000047   70C6         JNZ     ??GenericApp_ProcessEvent_2
    368          
    369              // return unprocessed events
    370              return (events ^ SYS_EVENT_MSG);
   \   000049   EE           MOV     A,R6
   \   00004A   FA           MOV     R2,A
   \   00004B   EF           MOV     A,R7
   \   00004C   6480         XRL     A,#0x80
   \                     ??GenericApp_ProcessEvent_4:
   \   00004E   FB           MOV     R3,A
   \   00004F   8023         SJMP    ??GenericApp_ProcessEvent_5
    371            }
    372            if(events & SEND_DATA_EVENT)
   \                     ??GenericApp_ProcessEvent_0:
   \   000051   EE           MOV     A,R6
   \   000052   A2E0         MOV     C,0xE0 /* A   */.0
   \   000054   501A         JNC     ??GenericApp_ProcessEvent_6
    373            {
    374              GenericApp_SendTheMessage();
   \   000056                ; Setup parameters for call to function GenericApp_SendTheMessage
   \   000056   12....       LCALL   ??GenericApp_SendTheMessage?relay
    375               //check();
    376               osal_start_timerEx(GenericApp_TaskID,SEND_DATA_EVENT,1500);//定时1200ms
   \   000059                ; Setup parameters for call to function osal_start_timerEx
   \   000059   7CDC         MOV     R4,#-0x24
   \   00005B   7D05         MOV     R5,#0x5
   \   00005D   7A01         MOV     R2,#0x1
   \   00005F   7B00         MOV     R3,#0x0
   \   000061   90....       MOV     DPTR,#GenericApp_TaskID
   \   000064   E0           MOVX    A,@DPTR
   \   000065   F9           MOV     R1,A
   \   000066   12....       LCALL   ??osal_start_timerEx?relay
    377               return(events^SEND_DATA_EVENT);
   \   000069   EE           MOV     A,R6
   \   00006A   6401         XRL     A,#0x1
   \   00006C   FA           MOV     R2,A
   \   00006D   EF           MOV     A,R7
   \   00006E   80DE         SJMP    ??GenericApp_ProcessEvent_4
    378            
    379            }
    380             //Discard unknown events
    381            return 0;
   \                     ??GenericApp_ProcessEvent_6:
   \   000070   7A00         MOV     R2,#0x0
   \   000072   7B00         MOV     R3,#0x0
   \                     ??GenericApp_ProcessEvent_5:
   \   000074   7F04         MOV     R7,#0x4
   \   000076   02....       LJMP    ?BANKED_LEAVE_XDATA
    382          }
    383          
    384          /*吴棉达修改 char theMessageData[20] = "TheEndDeviceMessage";//存放要发送的内容
    385          char TxData2[5]="ENDA1";        //存储发送字符串，节点1
    386          char TxData3[5]="ENDB0";        //存储发送字符串，节点2
    387           //int aaa=0,old=0;*/
    388          
    389          //uchar wen[6];

   \                                 In  segment XDATA_Z, align 1, keep-with-next
    390          uchar wen[5];
   \                     wen:
   \   000000                DS 5
   \   000005                REQUIRE __INIT_XDATA_Z
    391          

   \                                 In  segment BANKED_CODE, align 1, keep-with-next
    392           void GenericApp_SendTheMessage( void )
   \                     GenericApp_SendTheMessage:
    393          {
   \   000000   74F6         MOV     A,#-0xa
   \   000002   12....       LCALL   ?BANKED_ENTER_XDATA
   \   000005                ; Saved register size: 10
   \   000005                ; Auto size: 12
   \   000005   74F4         MOV     A,#-0xc
   \   000007   12....       LCALL   ?ALLOC_XSTACK8
    394            //uchar wen[6];
    395            afAddrType_t my_DstAddr;
    396           my_DstAddr.addrMode=(afAddrMode_t)Addr16Bit;
   \   00000A   7408         MOV     A,#0x8
   \   00000C   12....       LCALL   ?XSTACK_DISP0_8
   \   00000F   7402         MOV     A,#0x2
   \   000011   F0           MOVX    @DPTR,A
    397           my_DstAddr.endPoint=GENERICAPP_ENDPOINT;
   \   000012   7409         MOV     A,#0x9
   \   000014   12....       LCALL   ?XSTACK_DISP0_8
   \   000017   740A         MOV     A,#0xa
   \   000019   F0           MOVX    @DPTR,A
    398           my_DstAddr.addr.shortAddr=0x0000;
   \   00001A   85..82       MOV     DPL,?XSP + 0
   \   00001D   85..83       MOV     DPH,?XSP + 1
   \   000020   E4           CLR     A
   \   000021   F0           MOVX    @DPTR,A
   \   000022   A3           INC     DPTR
   \   000023   F0           MOVX    @DPTR,A
    399           
    400           DHT11();
   \   000024                ; Setup parameters for call to function DHT11
   \   000024   12....       LCALL   ??DHT11?relay
    401           HalLedBlink(HAL_LED_1,0,50,500);
   \   000027                ; Setup parameters for call to function HalLedBlink
   \   000027   7CF4         MOV     R4,#-0xc
   \   000029   7D01         MOV     R5,#0x1
   \   00002B   7B32         MOV     R3,#0x32
   \   00002D   7A00         MOV     R2,#0x0
   \   00002F   7901         MOV     R1,#0x1
   \   000031   12....       LCALL   ??HalLedBlink?relay
    402           wen[0]=wendu_shi+0x30;
   \   000034   90....       MOV     DPTR,#wendu_shi
   \   000037   E0           MOVX    A,@DPTR
   \   000038   2430         ADD     A,#0x30
   \   00003A   90....       MOV     DPTR,#wen
   \   00003D   F0           MOVX    @DPTR,A
    403           wen[1]=wendu_ge%10+0x30;
   \   00003E   90....       MOV     DPTR,#wendu_ge
   \   000041   12....       LCALL   ?Subroutine5 & 0xFFFF
   \                     ??CrossCallReturnLabel_10:
   \   000044   90....       MOV     DPTR,#wen + 1
   \   000047   F0           MOVX    @DPTR,A
    404           wen[2]=':';
   \   000048   A3           INC     DPTR
   \   000049   743A         MOV     A,#0x3a
   \   00004B   F0           MOVX    @DPTR,A
    405           wen[3]=shidu_shi+0x30;
   \   00004C   90....       MOV     DPTR,#shidu_shi
   \   00004F   E0           MOVX    A,@DPTR
   \   000050   2430         ADD     A,#0x30
   \   000052   90....       MOV     DPTR,#wen + 3
   \   000055   F0           MOVX    @DPTR,A
    406           wen[4]=shidu_ge%10+0x30;
   \   000056   90....       MOV     DPTR,#shidu_ge
   \   000059   12....       LCALL   ?Subroutine5 & 0xFFFF
   \                     ??CrossCallReturnLabel_11:
   \   00005C   90....       MOV     DPTR,#wen + 4
   \   00005F   F0           MOVX    @DPTR,A
    407           
    408           AF_DataRequest( &my_DstAddr, &GenericApp_epDesc,
    409                                 GENERICAPP_CLUSTERID,
    410                                  osal_strlen(wen)+1,       // ????????
                                                     ^
Warning[Pe167]: argument of type "uchar *" is incompatible with parameter of
          type "char *"
    411                                 wen,
    412                                //theMessageData,
    413                                 &GenericApp_TransID,
    414                                 AF_DISCV_ROUTE, AF_DEFAULT_RADIUS);
   \   000060                ; Setup parameters for call to function AF_DataRequest
   \   000060   75..1E       MOV     ?V0 + 0,#0x1e
   \   000063   78..         MOV     R0,#?V0 + 0
   \   000065   12....       LCALL   ?PUSH_XSTACK_I_ONE
   \   000068   75....       MOV     ?V0 + 0,#GenericApp_TransID & 0xff
   \   00006B   75....       MOV     ?V0 + 1,#(GenericApp_TransID >> 8) & 0xff
   \   00006E   78..         MOV     R0,#?V0 + 0
   \   000070   12....       LCALL   ?PUSH_XSTACK_I_TWO
   \   000073   75....       MOV     ?V0 + 0,#wen & 0xff
   \   000076   75....       MOV     ?V0 + 1,#(wen >> 8) & 0xff
   \   000079   78..         MOV     R0,#?V0 + 0
   \   00007B   12....       LCALL   ?PUSH_XSTACK_I_TWO
   \   00007E                ; Setup parameters for call to function osal_strlen
   \   00007E   7A..         MOV     R2,#wen & 0xff
   \   000080   7B..         MOV     R3,#(wen >> 8) & 0xff
   \   000082   12....       LCALL   ??osal_strlen?relay
   \   000085   EA           MOV     A,R2
   \   000086   2401         ADD     A,#0x1
   \   000088   F5..         MOV     ?V0 + 0,A
   \   00008A   EB           MOV     A,R3
   \   00008B   3400         ADDC    A,#0x0
   \   00008D   F5..         MOV     ?V0 + 1,A
   \   00008F   78..         MOV     R0,#?V0 + 0
   \   000091   12....       LCALL   ?PUSH_XSTACK_I_TWO
   \   000094   75..01       MOV     ?V0 + 0,#0x1
   \   000097   75..00       MOV     ?V0 + 1,#0x0
   \   00009A   78..         MOV     R0,#?V0 + 0
   \   00009C   12....       LCALL   ?PUSH_XSTACK_I_TWO
   \   00009F   7920         MOV     R1,#0x20
   \   0000A1   7C..         MOV     R4,#GenericApp_epDesc & 0xff
   \   0000A3   7D..         MOV     R5,#(GenericApp_epDesc >> 8) & 0xff
   \   0000A5   7409         MOV     A,#0x9
   \   0000A7   12....       LCALL   ?XSTACK_DISP0_8
   \   0000AA   AA82         MOV     R2,DPL
   \   0000AC   AB83         MOV     R3,DPH
   \   0000AE   12....       LCALL   ??AF_DataRequest?relay
   \   0000B1   7409         MOV     A,#0x9
   \   0000B3   12....       LCALL   ?DEALLOC_XSTACK8
    415           
    416           //HalLedBlink(HAL_LED_1,0,90,500);
    417            
    418            }
   \   0000B6   740C         MOV     A,#0xc
   \   0000B8   12....       LCALL   ?DEALLOC_XSTACK8
   \   0000BB   7F02         MOV     R7,#0x2
   \   0000BD   02....       LJMP    ?BANKED_LEAVE_XDATA

   \                                 In  segment BANKED_CODE, align 1, keep-with-next
   \                     ?Subroutine5:
   \   000000   12....       LCALL   ?Subroutine6 & 0xFFFF
   \                     ??CrossCallReturnLabel_14:
   \   000003   2430         ADD     A,#0x30
   \   000005   22           RET
    419          

   \                                 In  segment BANKED_CODE, align 1, keep-with-next
    420          void GenericApp_MessageMSGCB( afIncomingMSGPacket_t *pkt )//消息处理
   \                     GenericApp_MessageMSGCB:
    421          {
   \   000000   74F5         MOV     A,#-0xb
   \   000002   12....       LCALL   ?BANKED_ENTER_XDATA
   \   000005                ; Saved register size: 11
   \   000005                ; Auto size: 20
   \   000005   74EC         MOV     A,#-0x14
   \   000007   12....       LCALL   ?ALLOC_XSTACK8
    422            //HalLedBlink(HAL_LED_2,0,50,500);
    423            unsigned char buffer[20];
    424            switch ( pkt->clusterId )
   \   00000A   8A82         MOV     DPL,R2
   \   00000C   8B83         MOV     DPH,R3
   \   00000E   A3           INC     DPTR
   \   00000F   A3           INC     DPTR
   \   000010   A3           INC     DPTR
   \   000011   A3           INC     DPTR
   \   000012   E0           MOVX    A,@DPTR
   \   000013   6401         XRL     A,#0x1
   \   000015   7002         JNZ     ??GenericApp_MessageMSGCB_0
   \   000017   A3           INC     DPTR
   \   000018   E0           MOVX    A,@DPTR
   \                     ??GenericApp_MessageMSGCB_0:
   \   000019   7046         JNZ     ??GenericApp_MessageMSGCB_1
    425            {
    426              case GENERICAPP_CLUSTERID:
    427                // "the" message
    428                
    429                osal_memcpy(buffer,pkt->cmd.Data,20);//将数据拷贝到缓冲区
   \   00001B                ; Setup parameters for call to function osal_memcpy
   \   00001B   EA           MOV     A,R2
   \   00001C   2422         ADD     A,#0x22
   \   00001E   F582         MOV     DPL,A
   \   000020   EB           MOV     A,R3
   \   000021   3400         ADDC    A,#0x0
   \   000023   F583         MOV     DPH,A
   \   000025   E0           MOVX    A,@DPTR
   \   000026   F5..         MOV     ?V0 + 0,A
   \   000028   A3           INC     DPTR
   \   000029   E0           MOVX    A,@DPTR
   \   00002A   F5..         MOV     ?V0 + 1,A
   \   00002C   75..00       MOV     ?V0 + 2,#0x0
   \   00002F   78..         MOV     R0,#?V0 + 0
   \   000031   12....       LCALL   ?PUSH_XSTACK_I_THREE
   \   000034   7C14         MOV     R4,#0x14
   \   000036   7D00         MOV     R5,#0x0
   \   000038   7403         MOV     A,#0x3
   \   00003A   12....       LCALL   ?XSTACK_DISP0_8
   \   00003D   AA82         MOV     R2,DPL
   \   00003F   AB83         MOV     R3,DPH
   \   000041   12....       LCALL   ??osal_memcpy?relay
   \   000044   7403         MOV     A,#0x3
   \   000046   12....       LCALL   ?DEALLOC_XSTACK8
    430                
    431                if(buffer[0]=='2'){
   \   000049   85..82       MOV     DPL,?XSP + 0
   \   00004C   85..83       MOV     DPH,?XSP + 1
   \   00004F   E0           MOVX    A,@DPTR
   \   000050   6432         XRL     A,#0x32
   \   000052   7004         JNZ     ??GenericApp_MessageMSGCB_2
    432                  P2_0 = 1;
   \   000054   D2A0         SETB    0xa0.0
    433                  P2_2=0;
   \   000056   8007         SJMP    ??GenericApp_MessageMSGCB_3
    434                  //osal_memcpy(theMessageData,"OFF",20);//将数据拷贝到缓冲区
    435                
    436                }
    437                else if(buffer[0]=='3'){
   \                     ??GenericApp_MessageMSGCB_2:
   \   000058   E0           MOVX    A,@DPTR
   \   000059   6433         XRL     A,#0x33
   \   00005B   7004         JNZ     ??GenericApp_MessageMSGCB_1
    438                  P2_0 = 0;
   \   00005D   C2A0         CLR     0xa0.0
    439                  P2_2=0;
   \                     ??GenericApp_MessageMSGCB_3:
   \   00005F   C2A2         CLR     0xa0.2
    440                  //osal_memcpy(theMessageData,"ON",20);//将数据拷贝到缓冲区
    441                }
    442               //HalUARTWrite(0,buffer,20);
    443                break;
    444            }
    445            
    446          }
   \                     ??GenericApp_MessageMSGCB_1:
   \   000061   7414         MOV     A,#0x14
   \   000063   12....       LCALL   ?DEALLOC_XSTACK8
   \   000066   7F03         MOV     R7,#0x3
   \   000068   02....       LJMP    ?BANKED_LEAVE_XDATA
   \   00006B                REQUIRE _A_P2

   \                                 In  segment BANK_RELAYS, align 1
   \                     ??Delay_us?relay:
   \   000000   12....       LCALL   ?BDISPATCH
   \   000003   ......       DC24    Delay_us

   \                                 In  segment BANK_RELAYS, align 1
   \                     ??Delay_10us?relay:
   \   000000   12....       LCALL   ?BDISPATCH
   \   000003   ......       DC24    Delay_10us

   \                                 In  segment BANK_RELAYS, align 1
   \                     ??Delay_ms?relay:
   \   000000   12....       LCALL   ?BDISPATCH
   \   000003   ......       DC24    Delay_ms

   \                                 In  segment BANK_RELAYS, align 1
   \                     ??COM?relay:
   \   000000   12....       LCALL   ?BDISPATCH
   \   000003   ......       DC24    COM

   \                                 In  segment BANK_RELAYS, align 1
   \                     ??DHT11?relay:
   \   000000   12....       LCALL   ?BDISPATCH
   \   000003   ......       DC24    DHT11

   \                                 In  segment BANK_RELAYS, align 1
   \                     ??GenericApp_Init?relay:
   \   000000   12....       LCALL   ?BDISPATCH
   \   000003   ......       DC24    GenericApp_Init

   \                                 In  segment BANK_RELAYS, align 1
   \                     ??GenericApp_ProcessEvent?relay:
   \   000000   12....       LCALL   ?BDISPATCH
   \   000003   ......       DC24    GenericApp_ProcessEvent

   \                                 In  segment BANK_RELAYS, align 1
   \                     ??GenericApp_SendTheMessage?relay:
   \   000000   12....       LCALL   ?BDISPATCH
   \   000003   ......       DC24    GenericApp_SendTheMessage

   \                                 In  segment BANK_RELAYS, align 1
   \                     ??GenericApp_MessageMSGCB?relay:
   \   000000   12....       LCALL   ?BDISPATCH
   \   000003   ......       DC24    GenericApp_MessageMSGCB
    447          
    448          /*#pragma vector = P0INT_VECTOR    //选择中断零;中断向量，紧接着是中断处理程序
    449          __interrupt void P0_ISR(void) //定义中断
    450          { 
    451              DelayMS(200);     //延时去抖
    452              LED3 = ~LED3;    //改变LED1状态
    453              P0IFG = 0;       //清中断标志 
    454              P0IF = 0;        //清中断标志 
    455          
    456             
    457              GenericApp_SendTheMessage();
    458            GenericApp_SendTheMessage();
    459                
    460          } 
    461          */
    462          /*void check()
    463          { 
    464            if(P2_0==0)
    465              GenericApp_SendTheMessage();    
    466          }*/

   Maximum stack usage in bytes:

     Function                       ISTACK PSTACK XSTACK
     --------                       ------ ------ ------
     COM                                2      0      9
       -> Onboard_wait                  0      0     18
       -> Onboard_wait                  0      0     18
       -> Onboard_wait                  0      0     18
     DHT11                              8      0     22
       -> Delay_ms                      4      0      0
       -> Onboard_wait                  4      0      0
       -> Onboard_wait                  4      0      0
       -> Onboard_wait                  4      0      0
       -> Onboard_wait                  4      0      0
       -> COM                           4      0      0
       -> COM                           4      0      0
       -> COM                           4      0      0
       -> COM                           4      0      0
       -> COM                           4      0      0
     Delay_10us                         2      0      0
       -> Onboard_wait                  4      0      0
     Delay_ms                           0      0      9
       -> Onboard_wait                  0      0     18
     Delay_us                           2      0      0
       -> Onboard_wait                  4      0      0
     GenericApp_Init                    0      0      9
       -> afRegister                    0      0     18
     GenericApp_MessageMSGCB            0      0     34
       -> osal_memcpy                   0      0     68
     GenericApp_ProcessEvent            0      0     12
       -> osal_msg_receive              0      0     24
       -> osal_set_event                0      0     24
       -> osal_msg_deallocate           0      0     24
       -> osal_msg_receive              0      0     24
       -> GenericApp_SendTheMessage     0      0     24
       -> osal_start_timerEx            0      0     24
     GenericApp_SendTheMessage          0      0     43
       -> DHT11                         0      0     44
       -> HalLedBlink                   0      0     44
       -> osal_strlen                   0      0     54
       -> AF_DataRequest                0      0     62


   Segment part sizes:

     Function/Label                    Bytes
     --------------                    -----
     _A_P0                                1
     _A_P2                                1
     P0DIR                                1
     shidu_shi                            1
     shidu_ge                             1
     wendu_shi                            1
     wendu_ge                             1
     ucharFLAG                            1
     uchartemp                            1
     ucharT_data_H                        1
     ucharT_data_L                        1
     ucharRH_data_H                       1
     ucharRH_data_L                       1
     ucharcheckdata                       1
     ucharT_data_H_temp                   1
     ucharT_data_L_temp                   1
     ucharRH_data_H_temp                  1
     ucharRH_data_L_temp                  1
     ucharcheckdata_temp                  1
     ucharcomdata                         1
     Delay_us                             6
     ?Subroutine0                         5
     ??Subroutine7_0                      7
     Delay_10us                           8
     Delay_ms                            43
     ?Subroutine1                         5
     COM                                 85
     ?Subroutine4                         8
     ?Subroutine2                        22
     DHT11                              261
     ?Subroutine3                         9
     ?Subroutine6                         8
     GenericApp_ClusterList               2
     GenericApp_SimpleDesc               12
     GenericApp_epDesc                    6
     GenericApp_TaskID                    1
     GenericApp_TransID                   1
     GenericApp_NwkState                  1
     GenericApp_Init                     56
     GenericApp_ProcessEvent            121
     wen                                  5
     GenericApp_SendTheMessage          192
     ?Subroutine5                         6
     GenericApp_MessageMSGCB            107
     ??Delay_us?relay                     6
     ??Delay_10us?relay                   6
     ??Delay_ms?relay                     6
     ??COM?relay                          6
     ??DHT11?relay                        6
     ??GenericApp_Init?relay              6
     ??GenericApp_ProcessEvent?relay      6
     ??GenericApp_SendTheMessage?relay    6
     ??GenericApp_MessageMSGCB?relay      6

 
 949 bytes in segment BANKED_CODE
  54 bytes in segment BANK_RELAYS
   3 bytes in segment SFR_AN
  14 bytes in segment XDATA_ROM_C
  31 bytes in segment XDATA_Z
 
 1 003 bytes of CODE  memory
    14 bytes of CONST memory
     0 bytes of DATA  memory (+ 3 bytes shared)
    31 bytes of XDATA memory

Errors: none
Warnings: 4
