///////////////////////////////////////////////////////////////////////////////
//                                                                            /
// IAR C/C++ Compiler V8.10.1.10194/W32 for 8051        22/Jun/2017  23:10:04 /
// Copyright 2004-2011 IAR Systems AB.                                        /
//                                                                            /
//    Core               =  plain                                             /
//    Code model         =  banked                                            /
//    Data model         =  large                                             /
//    Calling convention =  xdata reentrant                                   /
//    Constant location  =  data_rom                                          /
//    Dptr setup         =  1,16                                              /
//    Source file        =  C:\ZStack-CC2530-2.5.1a\Projects\zstack\Samples\G /
//                          enericApp\Source\Cankao.c                         /
//    Command line       =  -f C:\ZStack-CC2530-2.5.1a\Projects\zstack\Sample /
//                          s\GenericApp\CC2530DB\..\..\..\Tools\CC2530DB\f8w /
//                          Coord.cfg (-DCPU32MHZ -DROOT=__near_func          /
//                          -DMAC_CFG_APP_PENDING_QUEUE=TRUE                  /
//                          -DMAC_CFG_TX_DATA_MAX=5 -DMAC_CFG_TX_MAX=8        /
//                          -DMAC_CFG_RX_MAX=5 -DZDO_COORDINATOR -DRTR_NWK)   /
//                          -f C:\ZStack-CC2530-2.5.1a\Projects\zstack\Sample /
//                          s\GenericApp\CC2530DB\..\..\..\Tools\CC2530DB\f8w /
//                          Config.cfg (-DZIGBEEPRO -DSECURE=0                /
//                          -DZG_SECURE_DYNAMIC=0 -DREFLECTOR                 /
//                          -DDEFAULT_CHANLIST=0x00000800                     /
//                          -DZDAPP_CONFIG_PAN_ID=0xFFFF                      /
//                          -DNWK_START_DELAY=100 -DEXTENDED_JOINING_RANDOM_M /
//                          ASK=0x007F -DBEACON_REQUEST_DELAY=100             /
//                          -DBEACON_REQ_DELAY_MASK=0x00FF                    /
//                          -DLINK_STATUS_JITTER_MASK=0x007F                  /
//                          -DROUTE_EXPIRY_TIME=30 -DAPSC_ACK_WAIT_DURATION_P /
//                          OLLED=3000 -DNWK_INDIRECT_MSG_TIMEOUT=7           /
//                          -DMAX_RREQ_ENTRIES=8 -DAPSC_MAX_FRAME_RETRIES=3   /
//                          -DNWK_MAX_DATA_RETRIES=2                          /
//                          -DMAX_POLL_FAILURE_RETRIES=2 -DMAX_BCAST=9        /
//                          -DAPS_MAX_GROUPS=16 -DMAX_RTG_ENTRIES=40          /
//                          -DNWK_MAX_BINDING_ENTRIES=4                       /
//                          -DMAX_BINDING_CLUSTER_IDS=4                       /
//                          "-DDEFAULT_KEY={0x01, 0x03, 0x05, 0x07, 0x09,     /
//                          0x0B, 0x0D, 0x0F, 0x00, 0x02, 0x04, 0x06, 0x08,   /
//                          0x0A, 0x0C, 0x0D}" -DMAC_MAX_FRAME_SIZE=116       /
//                          -DZDNWKMGR_MIN_TRANSMISSIONS=20 "-DCONST=const    /
//                          __code" -DGENERIC=__generic                       /
//                          -DRFD_RCVC_ALWAYS_ON=FALSE -DPOLL_RATE=1000       /
//                          -DQUEUED_POLL_RATE=100 -DRESPONSE_POLL_RATE=100)  /
//                          -DREJOIN_POLL_RATE=440 C:\ZStack-CC2530-2.5.1a\Pr /
//                          ojects\zstack\Samples\GenericApp\Source\Cankao.c  /
//                          -D ZTOOL_P1 -D MT_TASK -D MT_SYS_FUNC -D          /
//                          MT_ZDO_FUNC -D LCD_SUPPORTED=DEBUG -lC            /
//                          C:\ZStack-CC2530-2.5.1a\Projects\zstack\Samples\G /
//                          enericApp\CC2530DB\CoordinatorEB\List\ -lA        /
//                          C:\ZStack-CC2530-2.5.1a\Projects\zstack\Samples\G /
//                          enericApp\CC2530DB\CoordinatorEB\List\            /
//                          --diag_suppress Pe001,Pa010 -o                    /
//                          C:\ZStack-CC2530-2.5.1a\Projects\zstack\Samples\G /
//                          enericApp\CC2530DB\CoordinatorEB\Obj\ -e          /
//                          --no_code_motion --debug --core=plain             /
//                          --dptr=16,1 --data_model=large                    /
//                          --code_model=banked --calling_convention=xdata_re /
//                          entrant --place_constants=data_rom                /
//                          --nr_virtual_regs 16 -I                           /
//                          C:\ZStack-CC2530-2.5.1a\Projects\zstack\Samples\G /
//                          enericApp\CC2530DB\ -I C:\ZStack-CC2530-2.5.1a\Pr /
//                          ojects\zstack\Samples\GenericApp\CC2530DB\..\Sour /
//                          ce\ -I C:\ZStack-CC2530-2.5.1a\Projects\zstack\Sa /
//                          mples\GenericApp\CC2530DB\..\..\..\ZMain\TI2530DB /
//                          \ -I C:\ZStack-CC2530-2.5.1a\Projects\zstack\Samp /
//                          les\GenericApp\CC2530DB\..\..\..\..\..\Components /
//                          \hal\include\ -I C:\ZStack-CC2530-2.5.1a\Projects /
//                          \zstack\Samples\GenericApp\CC2530DB\..\..\..\..\. /
//                          .\Components\hal\target\CC2530EB\ -I              /
//                          C:\ZStack-CC2530-2.5.1a\Projects\zstack\Samples\G /
//                          enericApp\CC2530DB\..\..\..\..\..\Components\mac\ /
//                          include\ -I C:\ZStack-CC2530-2.5.1a\Projects\zsta /
//                          ck\Samples\GenericApp\CC2530DB\..\..\..\..\..\Com /
//                          ponents\mac\high_level\ -I                        /
//                          C:\ZStack-CC2530-2.5.1a\Projects\zstack\Samples\G /
//                          enericApp\CC2530DB\..\..\..\..\..\Components\mac\ /
//                          low_level\srf04\ -I C:\ZStack-CC2530-2.5.1a\Proje /
//                          cts\zstack\Samples\GenericApp\CC2530DB\..\..\..\. /
//                          .\..\Components\mac\low_level\srf04\single_chip\  /
//                          -I C:\ZStack-CC2530-2.5.1a\Projects\zstack\Sample /
//                          s\GenericApp\CC2530DB\..\..\..\..\..\Components\m /
//                          t\ -I C:\ZStack-CC2530-2.5.1a\Projects\zstack\Sam /
//                          ples\GenericApp\CC2530DB\..\..\..\..\..\Component /
//                          s\osal\include\ -I C:\ZStack-CC2530-2.5.1a\Projec /
//                          ts\zstack\Samples\GenericApp\CC2530DB\..\..\..\.. /
//                          \..\Components\services\saddr\ -I                 /
//                          C:\ZStack-CC2530-2.5.1a\Projects\zstack\Samples\G /
//                          enericApp\CC2530DB\..\..\..\..\..\Components\serv /
//                          ices\sdata\ -I C:\ZStack-CC2530-2.5.1a\Projects\z /
//                          stack\Samples\GenericApp\CC2530DB\..\..\..\..\..\ /
//                          Components\stack\af\ -I                           /
//                          C:\ZStack-CC2530-2.5.1a\Projects\zstack\Samples\G /
//                          enericApp\CC2530DB\..\..\..\..\..\Components\stac /
//                          k\nwk\ -I C:\ZStack-CC2530-2.5.1a\Projects\zstack /
//                          \Samples\GenericApp\CC2530DB\..\..\..\..\..\Compo /
//                          nents\stack\sapi\ -I C:\ZStack-CC2530-2.5.1a\Proj /
//                          ects\zstack\Samples\GenericApp\CC2530DB\..\..\..\ /
//                          ..\..\Components\stack\sec\ -I                    /
//                          C:\ZStack-CC2530-2.5.1a\Projects\zstack\Samples\G /
//                          enericApp\CC2530DB\..\..\..\..\..\Components\stac /
//                          k\sys\ -I C:\ZStack-CC2530-2.5.1a\Projects\zstack /
//                          \Samples\GenericApp\CC2530DB\..\..\..\..\..\Compo /
//                          nents\stack\zdo\ -I C:\ZStack-CC2530-2.5.1a\Proje /
//                          cts\zstack\Samples\GenericApp\CC2530DB\..\..\..\. /
//                          .\..\Components\zmac\ -I                          /
//                          C:\ZStack-CC2530-2.5.1a\Projects\zstack\Samples\G /
//                          enericApp\CC2530DB\..\..\..\..\..\Components\zmac /
//                          \f8w\ -Ohz --require_prototypes                   /
//    List file          =  C:\ZStack-CC2530-2.5.1a\Projects\zstack\Samples\G /
//                          enericApp\CC2530DB\CoordinatorEB\List\Cankao.s51  /
//                                                                            /
//                                                                            /
///////////////////////////////////////////////////////////////////////////////

        NAME Cankao

        RTMODEL "__SystemLibrary", "CLib"
        RTMODEL "__calling_convention", "xdata_reentrant"
        RTMODEL "__code_model", "banked"
        RTMODEL "__core", "plain"
        RTMODEL "__data_model", "large"
        RTMODEL "__dptr_size", "16"
        RTMODEL "__extended_stack", "disabled"
        RTMODEL "__location_for_constants", "data"
        RTMODEL "__number_of_dptrs", "1"
        RTMODEL "__rt_version", "1"

        RSEG DOVERLAY:DATA:NOROOT(0)
        RSEG IOVERLAY:IDATA:NOROOT(0)
        RSEG ISTACK:IDATA:NOROOT(0)
        RSEG PSTACK:XDATA:NOROOT(0)
        RSEG XSTACK:XDATA:NOROOT(0)

        EXTERN ?ALLOC_XSTACK8
        EXTERN ?BANKED_ENTER_XDATA
        EXTERN ?BANKED_LEAVE_XDATA
        EXTERN ?BDISPATCH
        EXTERN ?BRET
        EXTERN ?DEALLOC_XSTACK8
        EXTERN ?PUSH_XSTACK_I_ONE
        EXTERN ?PUSH_XSTACK_I_TWO
        EXTERN ?V0
        EXTERN ?XSP
        EXTERN ?XSTACK_DISP0_8
        EXTERN __INIT_XDATA_Z

        PUBLIC ??GenericApp_Init?relay
        FUNCTION ??GenericApp_Init?relay,0203H
        PUBLIC ??GenericApp_MessageMSGCB?relay
        FUNCTION ??GenericApp_MessageMSGCB?relay,0203H
        PUBLIC ??GenericApp_ProcessEvent?relay
        FUNCTION ??GenericApp_ProcessEvent?relay,0203H
        PUBLIC ??GenericApp_SendTheMessage?relay
        FUNCTION ??GenericApp_SendTheMessage?relay,0203H
        PUBLIC GenericApp_ClusterListInput
        PUBLIC GenericApp_ClusterListOutput
        PUBLIC GenericApp_Init
        FUNCTION GenericApp_Init,021203H
        ARGFRAME XSTACK, 0, STACK
        LOCFRAME XSTACK, 38, STACK
        PUBLIC GenericApp_MessageMSGCB
        FUNCTION GenericApp_MessageMSGCB,021203H
        ARGFRAME XSTACK, 12, STACK
        ARGFRAME IOVERLAY, 0, STATIC
        ARGFRAME DOVERLAY, 0, STATIC
        LOCFRAME ISTACK, 2, STACK
        PUBLIC GenericApp_NwkState
        PUBLIC GenericApp_ProcessEvent
        FUNCTION GenericApp_ProcessEvent,021203H
        ARGFRAME XSTACK, 0, STACK
        LOCFRAME XSTACK, 12, STACK
        PUBLIC GenericApp_SendTheMessage
        FUNCTION GenericApp_SendTheMessage,021203H
        ARGFRAME XSTACK, 12, STACK
        ARGFRAME IOVERLAY, 0, STATIC
        ARGFRAME DOVERLAY, 0, STATIC
        LOCFRAME XSTACK, 31, STACK
        PUBLIC GenericApp_SimpleDesc
        PUBLIC GenericApp_TaskID
        PUBLIC GenericApp_TransID
        PUBLIC GenericApp_epDesc
        PUBLIC ans
        PUBLIC cnt
        
        CFI Names cfiNames0
        CFI StackFrame CFA_SP SP IDATA
        CFI StackFrame CFA_PSP16 PSP16 XDATA
        CFI StackFrame CFA_XSP16 XSP16 XDATA
        CFI StaticOverlayFrame CFA_IOVERLAY IOVERLAY
        CFI StaticOverlayFrame CFA_DOVERLAY DOVERLAY
        CFI Resource `PSW.CY`:1, `B.BR0`:1, `B.BR1`:1, `B.BR2`:1, `B.BR3`:1
        CFI Resource `B.BR4`:1, `B.BR5`:1, `B.BR6`:1, `B.BR7`:1, `VB.BR8`:1
        CFI Resource `VB.BR9`:1, `VB.BR10`:1, `VB.BR11`:1, `VB.BR12`:1
        CFI Resource `VB.BR13`:1, `VB.BR14`:1, `VB.BR15`:1, VB:8, B:8, A:8
        CFI Resource PSW:8, DPL0:8, DPH0:8, R0:8, R1:8, R2:8, R3:8, R4:8, R5:8
        CFI Resource R6:8, R7:8, V0:8, V1:8, V2:8, V3:8, V4:8, V5:8, V6:8, V7:8
        CFI Resource V8:8, V9:8, V10:8, V11:8, V12:8, V13:8, V14:8, V15:8, SP:8
        CFI Resource PSPH:8, PSPL:8, PSP16:16, XSPH:8, XSPL:8, XSP16:16
        CFI VirtualResource ?RET:24
        CFI Resource ?BRET_EXT:8
        CFI VirtualResource ?RET_HIGH:8, ?RET_LOW:8
        CFI ResourceParts PSP16 PSPH, PSPL
        CFI ResourceParts XSP16 XSPH, XSPL
        CFI ResourceParts ?RET ?BRET_EXT, ?RET_HIGH, ?RET_LOW
        CFI EndNames cfiNames0
        
        CFI Common cfiCommon0 Using cfiNames0
        CFI CodeAlign 1
        CFI DataAlign -1
        CFI ReturnAddress ?RET CODE
        CFI CFA_DOVERLAY Used
        CFI CFA_IOVERLAY Used
        CFI CFA_SP SP+-3
        CFI CFA_PSP16 PSP16+0
        CFI CFA_XSP16 XSP16+0
        CFI `PSW.CY` SameValue
        CFI `B.BR0` SameValue
        CFI `B.BR1` SameValue
        CFI `B.BR2` SameValue
        CFI `B.BR3` SameValue
        CFI `B.BR4` SameValue
        CFI `B.BR5` SameValue
        CFI `B.BR6` SameValue
        CFI `B.BR7` SameValue
        CFI `VB.BR8` SameValue
        CFI `VB.BR9` SameValue
        CFI `VB.BR10` SameValue
        CFI `VB.BR11` SameValue
        CFI `VB.BR12` SameValue
        CFI `VB.BR13` SameValue
        CFI `VB.BR14` SameValue
        CFI `VB.BR15` SameValue
        CFI VB SameValue
        CFI B Undefined
        CFI A Undefined
        CFI PSW SameValue
        CFI DPL0 SameValue
        CFI DPH0 SameValue
        CFI R0 Undefined
        CFI R1 Undefined
        CFI R2 Undefined
        CFI R3 Undefined
        CFI R4 Undefined
        CFI R5 Undefined
        CFI R6 SameValue
        CFI R7 SameValue
        CFI V0 SameValue
        CFI V1 SameValue
        CFI V2 SameValue
        CFI V3 SameValue
        CFI V4 SameValue
        CFI V5 SameValue
        CFI V6 SameValue
        CFI V7 SameValue
        CFI V8 SameValue
        CFI V9 SameValue
        CFI V10 SameValue
        CFI V11 SameValue
        CFI V12 SameValue
        CFI V13 SameValue
        CFI V14 SameValue
        CFI V15 SameValue
        CFI PSPH Undefined
        CFI PSPL Undefined
        CFI XSPH Undefined
        CFI XSPL Undefined
        CFI ?RET Concat
        CFI ?BRET_EXT Frame(CFA_SP, 3)
        CFI ?RET_HIGH Frame(CFA_SP, 2)
        CFI ?RET_LOW Frame(CFA_SP, 1)
        CFI EndCommon cfiCommon0
        
afRegister          SYMBOL "afRegister"
HalUARTOpen         SYMBOL "HalUARTOpen"
osal_msg_receive    SYMBOL "osal_msg_receive"
osal_msg_deallocate SYMBOL "osal_msg_deallocate"
AF_DataRequest      SYMBOL "AF_DataRequest"
HalUARTWrite        SYMBOL "HalUARTWrite"
??AF_DataRequest?relay SYMBOL "?relay", AF_DataRequest
??HalUARTOpen?relay SYMBOL "?relay", HalUARTOpen
??HalUARTWrite?relay SYMBOL "?relay", HalUARTWrite
??afRegister?relay  SYMBOL "?relay", afRegister
??osal_msg_deallocate?relay SYMBOL "?relay", osal_msg_deallocate
??osal_msg_receive?relay SYMBOL "?relay", osal_msg_receive
GenericApp_Init     SYMBOL "GenericApp_Init"
??GenericApp_Init?relay SYMBOL "?relay", GenericApp_Init
GenericApp_MessageMSGCB SYMBOL "GenericApp_MessageMSGCB"
??GenericApp_MessageMSGCB?relay SYMBOL "?relay", GenericApp_MessageMSGCB
GenericApp_ProcessEvent SYMBOL "GenericApp_ProcessEvent"
??GenericApp_ProcessEvent?relay SYMBOL "?relay", GenericApp_ProcessEvent
GenericApp_SendTheMessage SYMBOL "GenericApp_SendTheMessage"
??GenericApp_SendTheMessage?relay SYMBOL "?relay", GenericApp_SendTheMessage

        EXTERN afRegister
        FUNCTION afRegister,0202H
        ARGFRAME ISTACK, 0, STACK
        ARGFRAME PSTACK, 0, STACK
        ARGFRAME XSTACK, 38, STACK
        ARGFRAME IOVERLAY, 0, STATIC
        ARGFRAME DOVERLAY, 0, STATIC
        EXTERN HalUARTOpen
        FUNCTION HalUARTOpen,0202H
        ARGFRAME ISTACK, 0, STACK
        ARGFRAME PSTACK, 0, STACK
        ARGFRAME XSTACK, 38, STACK
        ARGFRAME IOVERLAY, 0, STATIC
        ARGFRAME DOVERLAY, 0, STATIC
        EXTERN osal_msg_receive
        FUNCTION osal_msg_receive,0202H
        ARGFRAME ISTACK, 0, STACK
        ARGFRAME PSTACK, 0, STACK
        ARGFRAME XSTACK, 12, STACK
        ARGFRAME IOVERLAY, 0, STATIC
        ARGFRAME DOVERLAY, 0, STATIC
        EXTERN osal_msg_deallocate
        FUNCTION osal_msg_deallocate,0202H
        ARGFRAME ISTACK, 0, STACK
        ARGFRAME PSTACK, 0, STACK
        ARGFRAME XSTACK, 12, STACK
        ARGFRAME IOVERLAY, 0, STATIC
        ARGFRAME DOVERLAY, 0, STATIC
        EXTERN AF_DataRequest
        FUNCTION AF_DataRequest,0202H
        ARGFRAME ISTACK, 0, STACK
        ARGFRAME PSTACK, 0, STACK
        ARGFRAME XSTACK, 31, STACK
        ARGFRAME IOVERLAY, 0, STATIC
        ARGFRAME DOVERLAY, 0, STATIC
        EXTERN HalUARTWrite
        FUNCTION HalUARTWrite,0202H
        ARGFRAME ISTACK, 2, STACK
        ARGFRAME PSTACK, 0, STACK
        ARGFRAME XSTACK, 0, STACK
        ARGFRAME IOVERLAY, 0, STATIC
        ARGFRAME DOVERLAY, 0, STATIC
        EXTERN ??AF_DataRequest?relay
        FUNCTION ??AF_DataRequest?relay,00H
        EXTERN ??HalUARTOpen?relay
        FUNCTION ??HalUARTOpen?relay,00H
        EXTERN ??HalUARTWrite?relay
        FUNCTION ??HalUARTWrite?relay,00H
        EXTERN ??afRegister?relay
        FUNCTION ??afRegister?relay,00H
        EXTERN ??osal_msg_deallocate?relay
        FUNCTION ??osal_msg_deallocate?relay,00H
        EXTERN ??osal_msg_receive?relay
        FUNCTION ??osal_msg_receive?relay,00H

// C:\ZStack-CC2530-2.5.1a\Projects\zstack\Samples\GenericApp\Source\Cankao.c
//    1 #include "OSAL.h"
//    2 #include "AF.h"
//    3 #include "ZDApp.h"
//    4 #include "ZDObject.h"
//    5 #include "ZDProfile.h"
//    6 #include<string.h>
//    7 #include "GenericApp.h"
//    8 #include "DebugTrace.h"
//    9 
//   10 #if !defined( WIN32 )
//   11   #include "OnBoard.h"
//   12 #endif
//   13 
//   14 /* HAL */
//   15 #include "hal_lcd.h"
//   16 #include "hal_led.h"
//   17 #include "hal_key.h"
//   18 #include "hal_uart.h"
//   19 
//   20 //////////////////////////
//   21 ///
//   22 #define ERR  50 //误差值
//   23 #include <math.h>
//   24 

        RSEG XDATA_ROM_C:CONST:REORDER:NOROOT(0)
        DATA16
//   25 const cId_t GenericApp_ClusterListOutput[GENERICAPP_MAX_CLUSTERS] =
GenericApp_ClusterListOutput:
        DW 11
//   26 {
//   27   
//   28     
//   29       LOCATION_RSSI_BLAST
//   30 };
//   31 
//   32 

        RSEG XDATA_ROM_C:CONST:REORDER:NOROOT(0)
        DATA16
//   33 const cId_t GenericApp_ClusterListInput[GENERICAPP_MAX_CLUSTERS] =
GenericApp_ClusterListInput:
        DW 111
//   34 {
//   35   
//   36  
//   37  LOCATION_XY_RSSI_RESPONSE
//   38 };
//   39 

        RSEG XDATA_ROM_C:CONST:REORDER:NOROOT(0)
        DATA8
//   40 const SimpleDescriptionFormat_t GenericApp_SimpleDesc =
GenericApp_SimpleDesc:
        DB 10
        DATA16
        DW 3844
        DW 1
        DATA8
        DB 0
        DB 1
        DATA16
        DW GenericApp_ClusterListInput
        DATA8
        DB 1
        DATA16
        DW GenericApp_ClusterListOutput
//   41 {
//   42   GENERICAPP_ENDPOINT,              //  int Endpoint;
//   43   GENERICAPP_PROFID,                //  uint16 AppProfId[2];
//   44   GENERICAPP_DEVICEID,              //  uint16 AppDeviceId[2];
//   45   GENERICAPP_DEVICE_VERSION,        //  int   AppDevVer:4;
//   46   GENERICAPP_FLAGS,                 //  int   AppFlags:4;
//   47   GENERICAPP_MAX_CLUSTERS,          //  byte  AppNumInClusters;
//   48   (cId_t *)GenericApp_ClusterListInput,  //  byte *pAppInClusterList;
//   49   GENERICAPP_MAX_CLUSTERS,          //  byte  AppNumInClusters;
//   50   (cId_t *)GenericApp_ClusterListOutput   //  byte *pAppInClusterList;
//   51 };
//   52 
//   53 
//   54 
//   55 

        RSEG XDATA_Z:XDATA:NOROOT(0)
        DATA8
//   56 endPointDesc_t GenericApp_epDesc;
GenericApp_epDesc:
        DS 6
        REQUIRE __INIT_XDATA_Z

        RSEG XDATA_Z:XDATA:NOROOT(0)
        DATA8
//   57 byte GenericApp_TaskID;   
GenericApp_TaskID:
        DS 1
        REQUIRE __INIT_XDATA_Z

        RSEG XDATA_Z:XDATA:NOROOT(0)
        DATA8
//   58 byte GenericApp_TransID;// This is the unique message ID (counter)
GenericApp_TransID:
        DS 1
        REQUIRE __INIT_XDATA_Z

        RSEG XDATA_Z:XDATA:NOROOT(0)
        DATA8
//   59 devStates_t GenericApp_NwkState; //存储网络状态
GenericApp_NwkState:
        DS 1
        REQUIRE __INIT_XDATA_Z
//   60 
//   61 //unsigned char uartbuf[128];
//   62 
//   63 /*typedef struct{
//   64   byte endPoint;
//   65   byte *task_id;
//   66   SimpleDescriptionFormat_t *simpleDesc;
//   67   afNetworkLatencyReq_t latencyReq;
//   68 } endPointDesc_t;*/
//   69 
//   70 
//   71 
//   72 //void processMSGCmd(afIncomingMSGpacket_t *pckt);
//   73 void GenericApp_MessageMSGCB(afIncomingMSGPacket_t *pckt);
//   74 void GenericApp_SendTheMessage(void);
//   75 /////////////////////////////////////////////////////////////////////////////////////////////////////////////////////////////////////
//   76 //
//   77 ///
//   78 void rssitoDistance(double rssi,int a,double n);
//   79 //void locate(POINT_SITE * data,double* ans);                                                   // 用于计算位置
//   80 void two_circle(double x1,double y1,double r1,double x2,double y2,double r2,double* ans_two_cir);     // 求两个圆的交点
//   81 void quadratic_equation(double a,double b,double c,double* ans_qua_equ);
//   82                               // 求二次方程的解
//   83 ////////////////////////////////////////////////////////////////////////////////////////////////////////////////////////////////////函数声明
//   84 
//   85 
//   86 //static void rxCB(uint8 port,uint8 event);
//   87 

        RSEG BANKED_CODE:CODE:NOROOT(0)
//   88 void GenericApp_Init( uint8 task_id )
GenericApp_Init:
        CFI Block cfiBlock0 Using cfiCommon0
        CFI Function GenericApp_Init
        CODE
//   89 {
        FUNCALL GenericApp_Init, afRegister
        LOCFRAME ISTACK, 0, STACK
        LOCFRAME PSTACK, 0, STACK
        LOCFRAME XSTACK, 38, STACK
        LOCFRAME IOVERLAY, 0, STATIC
        LOCFRAME DOVERLAY, 0, STATIC
        ARGFRAME ISTACK, 0, STACK
        ARGFRAME PSTACK, 0, STACK
        ARGFRAME XSTACK, 38, STACK
        ARGFRAME IOVERLAY, 0, STATIC
        ARGFRAME DOVERLAY, 0, STATIC
        FUNCALL GenericApp_Init, HalUARTOpen
        LOCFRAME ISTACK, 0, STACK
        LOCFRAME PSTACK, 0, STACK
        LOCFRAME XSTACK, 38, STACK
        LOCFRAME IOVERLAY, 0, STATIC
        LOCFRAME DOVERLAY, 0, STATIC
        ARGFRAME ISTACK, 0, STACK
        ARGFRAME PSTACK, 0, STACK
        ARGFRAME XSTACK, 38, STACK
        ARGFRAME IOVERLAY, 0, STATIC
        ARGFRAME DOVERLAY, 0, STATIC
        MOV     A,#-0x9
        LCALL   ?BANKED_ENTER_XDATA
        CFI DPH0 load(1, XDATA, add(CFA_XSP16, literal(-1)))
        CFI DPL0 load(1, XDATA, add(CFA_XSP16, literal(-2)))
        CFI ?BRET_EXT load(1, XDATA, add(CFA_XSP16, literal(-3)))
        CFI ?RET_HIGH load(1, XDATA, add(CFA_XSP16, literal(-4)))
        CFI ?RET_LOW load(1, XDATA, add(CFA_XSP16, literal(-5)))
        CFI R7 load(1, XDATA, add(CFA_XSP16, literal(-6)))
        CFI V0 load(1, XDATA, add(CFA_XSP16, literal(-7)))
        CFI VB load(1, XDATA, add(CFA_XSP16, literal(-8)))
        CFI R6 load(1, XDATA, add(CFA_XSP16, literal(-9)))
        CFI CFA_SP SP+0
        CFI CFA_XSP16 add(XSP16, 9)
        ; Saved register size: 9
        ; Auto size: 29
        MOV     A,#-0x1d
        LCALL   ?ALLOC_XSTACK8
        CFI CFA_XSP16 add(XSP16, 38)
        MOV     A,R1
//   90   halUARTCfg_t uartConfig; // 定义串口
//   91   GenericApp_TaskID = task_id;
        MOV     DPTR,#GenericApp_TaskID
        MOVX    @DPTR,A
//   92   GenericApp_TransID = 0;
        MOV     DPTR,#GenericApp_TransID
        CLR     A
        MOVX    @DPTR,A
//   93 
//   94   GenericApp_epDesc.endPoint = GENERICAPP_ENDPOINT;
        MOV     DPTR,#GenericApp_epDesc
        MOV     A,#0xa
        MOVX    @DPTR,A
//   95   GenericApp_epDesc.task_id = &GenericApp_TaskID;
        INC     DPTR
        MOV     A,#GenericApp_TaskID & 0xff
        MOVX    @DPTR,A
        INC     DPTR
        MOV     A,#(GenericApp_TaskID >> 8) & 0xff
        MOVX    @DPTR,A
//   96   GenericApp_epDesc.simpleDesc = (SimpleDescriptionFormat_t *)&GenericApp_SimpleDesc;
        INC     DPTR
        MOV     A,#GenericApp_SimpleDesc & 0xff
        MOVX    @DPTR,A
        INC     DPTR
        MOV     A,#(GenericApp_SimpleDesc >> 8) & 0xff
        MOVX    @DPTR,A
//   97   GenericApp_epDesc.latencyReq = noLatencyReqs;
        INC     DPTR
        CLR     A
        MOVX    @DPTR,A
//   98   afRegister( &GenericApp_epDesc );
        ; Setup parameters for call to function afRegister
        MOV     R2,#GenericApp_epDesc & 0xff
        MOV     R3,#(GenericApp_epDesc >> 8) & 0xff
        LCALL   ??afRegister?relay
//   99   
//  100   //对串口成员赋值
//  101   uartConfig.configured=TRUE;
        MOV     DPL,?XSP + 0
        MOV     DPH,?XSP + 1
        MOV     A,#0x1
        MOVX    @DPTR,A
//  102   uartConfig.baudRate=HAL_UART_BR_115200;
        LCALL   ?XSTACK_DISP0_8
        MOV     A,#0x4
        MOVX    @DPTR,A
//  103   uartConfig.flowControl=FALSE;
        MOV     A,#0x2
        LCALL   ?XSTACK_DISP0_8
        CLR     A
        MOVX    @DPTR,A
//  104   uartConfig.callBackFunc=NULL;
        MOV     A,#0x1b
        LCALL   ?XSTACK_DISP0_8
        CLR     A
        MOVX    @DPTR,A
        INC     DPTR
        MOVX    @DPTR,A
//  105   HalUARTOpen(0,&uartConfig);
        ; Setup parameters for call to function HalUARTOpen
        MOV     DPL,?XSP + 0
        MOV     DPH,?XSP + 1
        MOV     R2,DPL
        MOV     R3,DPH
        MOV     R1,A
        LCALL   ??HalUARTOpen?relay
//  106 }
        MOV     A,#0x1d
        LCALL   ?DEALLOC_XSTACK8
        CFI CFA_XSP16 add(XSP16, 9)
        MOV     R7,#0x1
        LJMP    ?BANKED_LEAVE_XDATA
        CFI EndBlock cfiBlock0
//  107 

        RSEG BANKED_CODE:CODE:NOROOT(0)
//  108 uint16 GenericApp_ProcessEvent( byte task_id, uint16 events )
GenericApp_ProcessEvent:
        CFI Block cfiBlock1 Using cfiCommon0
        CFI Function GenericApp_ProcessEvent
        CODE
//  109 {
        FUNCALL GenericApp_ProcessEvent, osal_msg_receive
        LOCFRAME ISTACK, 0, STACK
        LOCFRAME PSTACK, 0, STACK
        LOCFRAME XSTACK, 12, STACK
        LOCFRAME IOVERLAY, 0, STATIC
        LOCFRAME DOVERLAY, 0, STATIC
        ARGFRAME ISTACK, 0, STACK
        ARGFRAME PSTACK, 0, STACK
        ARGFRAME XSTACK, 12, STACK
        ARGFRAME IOVERLAY, 0, STATIC
        ARGFRAME DOVERLAY, 0, STATIC
        FUNCALL GenericApp_ProcessEvent, GenericApp_SendTheMessage
        LOCFRAME ISTACK, 0, STACK
        LOCFRAME PSTACK, 0, STACK
        LOCFRAME XSTACK, 12, STACK
        LOCFRAME IOVERLAY, 0, STATIC
        LOCFRAME DOVERLAY, 0, STATIC
        ARGFRAME ISTACK, 0, STACK
        ARGFRAME PSTACK, 0, STACK
        ARGFRAME XSTACK, 12, STACK
        ARGFRAME IOVERLAY, 0, STATIC
        ARGFRAME DOVERLAY, 0, STATIC
        FUNCALL GenericApp_ProcessEvent, osal_msg_deallocate
        LOCFRAME ISTACK, 0, STACK
        LOCFRAME PSTACK, 0, STACK
        LOCFRAME XSTACK, 12, STACK
        LOCFRAME IOVERLAY, 0, STATIC
        LOCFRAME DOVERLAY, 0, STATIC
        ARGFRAME ISTACK, 0, STACK
        ARGFRAME PSTACK, 0, STACK
        ARGFRAME XSTACK, 12, STACK
        ARGFRAME IOVERLAY, 0, STATIC
        ARGFRAME DOVERLAY, 0, STATIC
        FUNCALL GenericApp_ProcessEvent, osal_msg_receive
        LOCFRAME ISTACK, 0, STACK
        LOCFRAME PSTACK, 0, STACK
        LOCFRAME XSTACK, 12, STACK
        LOCFRAME IOVERLAY, 0, STATIC
        LOCFRAME DOVERLAY, 0, STATIC
        ARGFRAME ISTACK, 0, STACK
        ARGFRAME PSTACK, 0, STACK
        ARGFRAME XSTACK, 12, STACK
        ARGFRAME IOVERLAY, 0, STATIC
        ARGFRAME DOVERLAY, 0, STATIC
        FUNCALL GenericApp_ProcessEvent, GenericApp_MessageMSGCB
        LOCFRAME ISTACK, 0, STACK
        LOCFRAME PSTACK, 0, STACK
        LOCFRAME XSTACK, 12, STACK
        LOCFRAME IOVERLAY, 0, STATIC
        LOCFRAME DOVERLAY, 0, STATIC
        ARGFRAME ISTACK, 0, STACK
        ARGFRAME PSTACK, 0, STACK
        ARGFRAME XSTACK, 12, STACK
        ARGFRAME IOVERLAY, 0, STATIC
        ARGFRAME DOVERLAY, 0, STATIC
        MOV     A,#-0xc
        LCALL   ?BANKED_ENTER_XDATA
        CFI DPH0 load(1, XDATA, add(CFA_XSP16, literal(-1)))
        CFI DPL0 load(1, XDATA, add(CFA_XSP16, literal(-2)))
        CFI ?BRET_EXT load(1, XDATA, add(CFA_XSP16, literal(-3)))
        CFI ?RET_HIGH load(1, XDATA, add(CFA_XSP16, literal(-4)))
        CFI ?RET_LOW load(1, XDATA, add(CFA_XSP16, literal(-5)))
        CFI R7 load(1, XDATA, add(CFA_XSP16, literal(-6)))
        CFI V3 load(1, XDATA, add(CFA_XSP16, literal(-7)))
        CFI V2 load(1, XDATA, add(CFA_XSP16, literal(-8)))
        CFI V1 load(1, XDATA, add(CFA_XSP16, literal(-9)))
        CFI V0 load(1, XDATA, add(CFA_XSP16, literal(-10)))
        CFI VB load(1, XDATA, add(CFA_XSP16, literal(-11)))
        CFI R6 load(1, XDATA, add(CFA_XSP16, literal(-12)))
        CFI CFA_SP SP+0
        CFI CFA_XSP16 add(XSP16, 12)
        ; Saved register size: 12
        ; Auto size: 0
        MOV     ?V0 + 0,R2
        MOV     ?V0 + 1,R3
//  110   afIncomingMSGPacket_t *MSGpkt;
//  111 
//  112   if ( events & SYS_EVENT_MSG )
        MOV     A,R3
        ANL     A,#0x80
        JZ      ??GenericApp_ProcessEvent_0
//  113   {
//  114     MSGpkt = (afIncomingMSGPacket_t *)osal_msg_receive( GenericApp_TaskID );
        ; Setup parameters for call to function osal_msg_receive
        SJMP    ??GenericApp_ProcessEvent_1
//  115     while ( MSGpkt )
//  116     {
//  117       switch ( MSGpkt->hdr.event )
//  118       {
//  119         case AF_INCOMING_MSG_CMD:
//  120           GenericApp_MessageMSGCB( MSGpkt );
//  121           break;
//  122           
//  123         case ZDO_STATE_CHANGE: //建立网络后 给终端发数据
//  124           GenericApp_NwkState = (devStates_t)(MSGpkt->hdr.status);
??GenericApp_ProcessEvent_2:
        INC     DPTR
        MOVX    A,@DPTR
        MOV     DPTR,#GenericApp_NwkState
        MOVX    @DPTR,A
//  125           if (GenericApp_NwkState == DEV_END_DEVICE)
        XRL     A,#0x6
        JNZ     ??GenericApp_ProcessEvent_3
//  126           {
//  127             GenericApp_SendTheMessage();
        ; Setup parameters for call to function GenericApp_SendTheMessage
        LCALL   ??GenericApp_SendTheMessage?relay
//  128           }
//  129           break;
//  130           
//  131         default:
//  132           break;
//  133       }
//  134       osal_msg_deallocate( (uint8 *)MSGpkt );
??GenericApp_ProcessEvent_3:
        ; Setup parameters for call to function osal_msg_deallocate
        MOV     A,R6
        MOV     R2,A
        MOV     A,R7
        MOV     R3,A
        LCALL   ??osal_msg_deallocate?relay
//  135    
//  136       MSGpkt = (afIncomingMSGPacket_t *)osal_msg_receive( GenericApp_TaskID );
        ; Setup parameters for call to function osal_msg_receive
??GenericApp_ProcessEvent_1:
        MOV     DPTR,#GenericApp_TaskID
        MOVX    A,@DPTR
        MOV     R1,A
        LCALL   ??osal_msg_receive?relay
        MOV     ?V0 + 2,R2
        MOV     ?V0 + 3,R3
        MOV     R6,?V0 + 2
        MOV     R7,?V0 + 3
        MOV     A,R6
        ORL     A,R7
        JZ      ??GenericApp_ProcessEvent_4
        MOV     DPL,R6
        MOV     DPH,R7
        MOVX    A,@DPTR
        ADD     A,#-0x1a
        JZ      ??GenericApp_ProcessEvent_5
        ADD     A,#0x49
        JZ      ??GenericApp_ProcessEvent_2
        SJMP    ??GenericApp_ProcessEvent_3
??GenericApp_ProcessEvent_5:
        ; Setup parameters for call to function GenericApp_MessageMSGCB
        MOV     A,R6
        MOV     R2,A
        MOV     A,R7
        MOV     R3,A
        LCALL   ??GenericApp_MessageMSGCB?relay
        SJMP    ??GenericApp_ProcessEvent_3
//  137     }
//  138 
//  139     // return unprocessed events
//  140     return (events ^ SYS_EVENT_MSG);
??GenericApp_ProcessEvent_4:
        MOV     R2,?V0 + 0
        MOV     A,?V0 + 1
        XRL     A,#0x80
        MOV     R3,A
        SJMP    ??GenericApp_ProcessEvent_6
//  141   }
//  142   return 0;
??GenericApp_ProcessEvent_0:
        MOV     R2,#0x0
        MOV     R3,#0x0
??GenericApp_ProcessEvent_6:
        MOV     R7,#0x4
        LJMP    ?BANKED_LEAVE_XDATA
        CFI EndBlock cfiBlock1
//  143 }
//  144 
//  145 
//  146 /*void processMSGCmd(afIncomingMSGPacket_t *pckt)
//  147 {
//  148 		switch(pkt->clusterId)
//  149 		{
//  150 		
//  151 		   case LOCATION_XY_RSSI_RESPONSE:
//  152 		   uint8 idx;
//  153 		   double distance;
//  154 		   for(idx=0;idx<3;idx++)
//  155 		   {
//  156 				data[idx].x=BUILD_UINT16(pkt->cmd.Data[LOCATION_XY_RSSI_X_LO_IDX],pkt->cmd.Data[LOCATION_XY_RSSI_X_HI_IDX]);
//  157 				data[idx].y=BUILD_UINT16(pkt->cmd.Data[LOCATION_XY_RSSI_Y_LO_IDX],pkt->cmd.Data[LOCATION_XY_RSSI_Y_HI_IDX]);
//  158 				data[idx].rssi=pkt->cmd.Data[LOCATION_XY_RSSI_X_RSSI_IDX]);
//  159 				distance=rssitoDistance(s[i],-54.8,3.6);
//  160 				data[idx].d=distance;
//  161 				
//  162 				break;
//  163 		   }
//  164 		   break;
//  165 		}
//  166 
//  167 }
//  168 */
//  169 
//  170 /*void rssitoDistance(double rssi,int a,double n)
//  171 	{
//  172 			double ra=rssi;//赋值，此时的rssi为绝对值
//  173 			double ka=(ra-a)/(10*n);
//  174 			double  distance=Math.pow(10,ka);//求出10的ka次方
//  175 			return distance;//返回盲节点和参考节点之间的距离
//  176 
//  177 	
//  178 	}
//  179 
//  180 */
//  181 

        RSEG BANKED_CODE:CODE:NOROOT(0)
//  182 void GenericApp_SendTheMessage( void )
GenericApp_SendTheMessage:
        CFI Block cfiBlock2 Using cfiCommon0
        CFI Function GenericApp_SendTheMessage
        CODE
//  183 {
        FUNCALL GenericApp_SendTheMessage, AF_DataRequest
        LOCFRAME ISTACK, 0, STACK
        LOCFRAME PSTACK, 0, STACK
        LOCFRAME XSTACK, 31, STACK
        LOCFRAME IOVERLAY, 0, STATIC
        LOCFRAME DOVERLAY, 0, STATIC
        ARGFRAME ISTACK, 0, STACK
        ARGFRAME PSTACK, 0, STACK
        ARGFRAME XSTACK, 31, STACK
        ARGFRAME IOVERLAY, 0, STATIC
        ARGFRAME DOVERLAY, 0, STATIC
        MOV     A,#-0xa
        LCALL   ?BANKED_ENTER_XDATA
        CFI DPH0 load(1, XDATA, add(CFA_XSP16, literal(-1)))
        CFI DPL0 load(1, XDATA, add(CFA_XSP16, literal(-2)))
        CFI ?BRET_EXT load(1, XDATA, add(CFA_XSP16, literal(-3)))
        CFI ?RET_HIGH load(1, XDATA, add(CFA_XSP16, literal(-4)))
        CFI ?RET_LOW load(1, XDATA, add(CFA_XSP16, literal(-5)))
        CFI R7 load(1, XDATA, add(CFA_XSP16, literal(-6)))
        CFI V1 load(1, XDATA, add(CFA_XSP16, literal(-7)))
        CFI V0 load(1, XDATA, add(CFA_XSP16, literal(-8)))
        CFI VB load(1, XDATA, add(CFA_XSP16, literal(-9)))
        CFI R6 load(1, XDATA, add(CFA_XSP16, literal(-10)))
        CFI CFA_SP SP+0
        CFI CFA_XSP16 add(XSP16, 10)
        ; Saved register size: 10
        ; Auto size: 12
        MOV     A,#-0xc
        LCALL   ?ALLOC_XSTACK8
        CFI CFA_XSP16 add(XSP16, 22)
//  184   unsigned char theMessageData[10] = "EndDevice";
//  185   afAddrType_t my_DstAddr;
//  186   my_DstAddr.addrMode = (afAddrMode_t)AddrBroadcast;//广播模式
        MOV     A,#0x8
        LCALL   ?XSTACK_DISP0_8
        MOV     A,#0xf
        MOVX    @DPTR,A
//  187   my_DstAddr.endPoint = GENERICAPP_ENDPOINT;
        MOV     A,#0x9
        LCALL   ?XSTACK_DISP0_8
        MOV     A,#0xa
        MOVX    @DPTR,A
//  188   my_DstAddr.addr.shortAddr = 0xFFFF;//全部节点 包括休眠的
        MOV     DPL,?XSP + 0
        MOV     DPH,?XSP + 1
        MOV     A,#-0x1
        MOVX    @DPTR,A
        INC     DPTR
        MOVX    @DPTR,A
//  189                                      //0xFFFD     全部节点 不包括休眠的
//  190                                      //0xFFFC    发往所有路由节点
//  191 
//  192   AF_DataRequest( &my_DstAddr, &GenericApp_epDesc,
//  193                        LOCATION_RSSI_BLAST,
//  194                        0,
//  195                        NULL,
//  196                        &GenericApp_TransID,
//  197                        AF_SKIP_ROUTING, 
//  198                        1 );
        ; Setup parameters for call to function AF_DataRequest
        MOV     ?V0 + 0,#0x1
        MOV     R0,#?V0 + 0
        LCALL   ?PUSH_XSTACK_I_ONE
        CFI CFA_XSP16 add(XSP16, 23)
        MOV     ?V0 + 0,#GenericApp_TransID & 0xff
        MOV     ?V0 + 1,#(GenericApp_TransID >> 8) & 0xff
        MOV     R0,#?V0 + 0
        LCALL   ?PUSH_XSTACK_I_TWO
        CFI CFA_XSP16 add(XSP16, 25)
        CLR     A
        MOV     ?V0 + 0,A
        MOV     ?V0 + 1,A
        MOV     R0,#?V0 + 0
        LCALL   ?PUSH_XSTACK_I_TWO
        CFI CFA_XSP16 add(XSP16, 27)
        MOV     R0,#?V0 + 0
        LCALL   ?PUSH_XSTACK_I_TWO
        CFI CFA_XSP16 add(XSP16, 29)
        MOV     ?V0 + 0,#0xb
        MOV     R0,#?V0 + 0
        LCALL   ?PUSH_XSTACK_I_TWO
        CFI CFA_XSP16 add(XSP16, 31)
        MOV     R1,#-0x80
        MOV     R4,#GenericApp_epDesc & 0xff
        MOV     R5,#(GenericApp_epDesc >> 8) & 0xff
        MOV     A,#0x9
        LCALL   ?XSTACK_DISP0_8
        MOV     R2,DPL
        MOV     R3,DPH
        LCALL   ??AF_DataRequest?relay
        MOV     A,#0x9
        LCALL   ?DEALLOC_XSTACK8
        CFI CFA_XSP16 add(XSP16, 22)
//  199   //state=eBnBlastout;
//  200   
//  201 }
        MOV     A,#0xc
        LCALL   ?DEALLOC_XSTACK8
        CFI CFA_XSP16 add(XSP16, 10)
        MOV     R7,#0x2
        LJMP    ?BANKED_LEAVE_XDATA
        CFI EndBlock cfiBlock2
//  202 
//  203 
//  204 
//  205 
//  206 
//  207 
//  208 
//  209 
//  210 
//  211 
//  212 
//  213 //////////////////////////////////////////////////////////////////////
//  214 //
//  215 ////定义x和y坐标，r半径，cnt判断终端传来的个数
//  216 
//  217 //POINT_SITE data[3];//存放节点坐标和节点与盲点的距离

        RSEG XDATA_Z:XDATA:NOROOT(0)
        DATA16
//  218 int cnt=0;//存放总终端数
cnt:
        DS 2
        REQUIRE __INIT_XDATA_Z

        RSEG XDATA_Z:XDATA:NOROOT(0)
        DATA8
//  219 double ans[3];//存放算出小车的坐标
ans:
        DS 12
        REQUIRE __INIT_XDATA_Z
//  220 ///////////////////////////////////////////////////////////////////定义全局变量
//  221 
//  222 

        RSEG BANKED_CODE:CODE:NOROOT(0)
//  223 void GenericApp_MessageMSGCB( afIncomingMSGPacket_t *pkt )
GenericApp_MessageMSGCB:
        CFI Block cfiBlock3 Using cfiCommon0
        CFI Function GenericApp_MessageMSGCB
        CODE
//  224 {
        FUNCALL GenericApp_MessageMSGCB, HalUARTWrite
        LOCFRAME ISTACK, 2, STACK
        LOCFRAME PSTACK, 0, STACK
        LOCFRAME XSTACK, 0, STACK
        LOCFRAME IOVERLAY, 0, STATIC
        LOCFRAME DOVERLAY, 0, STATIC
        ARGFRAME ISTACK, 2, STACK
        ARGFRAME PSTACK, 0, STACK
        ARGFRAME XSTACK, 0, STACK
        ARGFRAME IOVERLAY, 0, STATIC
        ARGFRAME DOVERLAY, 0, STATIC
        PUSH    DPL
        CFI DPL0 Frame(CFA_SP, 4)
        CFI CFA_SP SP+-4
        PUSH    DPH
        CFI DPH0 Frame(CFA_SP, 5)
        CFI CFA_SP SP+-5
        ; Saved register size: 2
        ; Auto size: 0
//  225  //  buffer[3];
//  226   //unsigned char buff[2]={0x0A,0x0D};      //回车换行ASCII码
//  227   // unsigned char buffer[10];
//  228    int8 i;
//  229   switch ( pkt->clusterId )
        MOV     DPL,R2
        MOV     DPH,R3
        INC     DPTR
        INC     DPTR
        INC     DPTR
        INC     DPTR
        MOVX    A,@DPTR
        XRL     A,#0x6f
        JNZ     ??GenericApp_MessageMSGCB_0
        INC     DPTR
        MOVX    A,@DPTR
??GenericApp_MessageMSGCB_0:
        JNZ     ??GenericApp_MessageMSGCB_1
//  230   {
//  231   case  LOCATION_XY_RSSI_RESPONSE:
//  232        i=pkt->rssi;
//  233        
//  234         HalUARTWrite(0,(char *)i,1);
        ; Setup parameters for call to function HalUARTWrite
        MOV     R4,#0x1
        MOV     R5,#0x0
        MOV     A,R2
        ADD     A,#0x18
        MOV     DPL,A
        MOV     A,R3
        ADDC    A,#0x0
        MOV     DPH,A
        MOVX    A,@DPTR
        MOV     R2,A
        RLC     A
        SUBB    A,0xE0 /* A   */
        MOV     R3,A
        MOV     R1,#0x0
        LCALL   ??HalUARTWrite?relay
//  235      break;
//  236   }
//  237 }
??GenericApp_MessageMSGCB_1:
        POP     DPH
        CFI DPH0 SameValue
        CFI CFA_SP SP+-4
        POP     DPL
        CFI DPL0 SameValue
        CFI CFA_SP SP+-3
        LJMP    ?BRET
        CFI EndBlock cfiBlock3

        RSEG BANK_RELAYS:CODE:REORDER:NOROOT(0)
??GenericApp_Init?relay:
        LCALL   ?BDISPATCH
        DATA
        DC24    GenericApp_Init

        RSEG BANK_RELAYS:CODE:REORDER:NOROOT(0)
??GenericApp_ProcessEvent?relay:
        LCALL   ?BDISPATCH
        DATA
        DC24    GenericApp_ProcessEvent

        RSEG BANK_RELAYS:CODE:REORDER:NOROOT(0)
??GenericApp_SendTheMessage?relay:
        LCALL   ?BDISPATCH
        DATA
        DC24    GenericApp_SendTheMessage

        RSEG BANK_RELAYS:CODE:REORDER:NOROOT(0)
??GenericApp_MessageMSGCB?relay:
        LCALL   ?BDISPATCH
        DATA
        DC24    GenericApp_MessageMSGCB

        END
//  238 
//  239 
//  240 
//  241 
//  242 ///////////////////////////////////////////////////////////////////////////////////////////
//  243 //
//  244 //计算三个圆的坐标 即小车的坐标
//  245 
//  246 /*void locate(POINT_SITE * data,double* ans) 
//  247 {
//  248   double ans_two_cir1[5];
//  249   double ans_two_cir2[5];
//  250   two_circle(data[0].x,data[0].y,data[0].r,data[1].x,data[1].y,data[1].r,ans_two_cir1);///////////////////////////////////////调用第一组圆求交点函数
//  251 
//  252   if(ans_two_cir1[0]==0)//////////////////////////////////////////////第一组圆没有交点
//  253 	{
//  254 		ans_loc[0]=0;
//  255 		return;
//  256 	}
//  257 
//  258   if(ans_two_cir1[0]==1)////////////////////////////////////////////// 第一组圆有一个交点
//  259 	{
//  260 		
//  261 		two_circle(data[1].x,data[1].y,data[1].r,data[2].x,data[2].y,data[2].r,ans_two_cir2);/////////调用第二组圆求交点函数
//  262 
//  263 		if(ans_two_cir2[0]==0)////////////////////第二组圆没有交点
//  264 		{
//  265 			ans_loc[0]=0;
//  266 			return;
//  267 		}
//  268 		if(ans_two_cir2[0]==1)///////////////////第二组圆有一个交点
//  269 		{
//  270 			if( fabs(ans_two_cir1[1]-ans_two_cir2[1])<ERR && fabs(ans_two_cir1[2]-ans_two_cir2[2])<ERR )
//  271 			{
//  272 				ans_loc[0]=1;
//  273 				ans_loc[1]=ans_two_cir1[1];
//  274 				ans_loc[2]=ans_two_cir1[2];
//  275 				return;
//  276 			}
//  277 			else
//  278 			{
//  279 				ans_loc[0]=0;
//  280 				return;
//  281 			}
//  282 		}
//  283 		if(ans_two_cir2[0]==2)///////////////////第二组员有两个交点
//  284 		{
//  285 			if(fabs(ans_two_cir1[1]-ans_two_cir2[1])<ERR && fabs(ans_two_cir1[2]-ans_two_cir2[2])<ERR)
//  286 			{
//  287 				ans_loc[0]=1;
//  288 				ans_loc[1]=ans_two_cir1[1];
//  289 				ans_loc[2]=ans_two_cir1[2];
//  290 				return;
//  291 			}
//  292 			if( fabs(ans_two_cir1[1]-ans_two_cir2[3])<ERR && fabs(ans_two_cir1[2]-ans_two_cir2[4])<ERR )
//  293 			{
//  294 				ans_loc[0]=1;
//  295 				ans_loc[1]=ans_two_cir1[1];
//  296 				ans_loc[2]=ans_two_cir1[2];
//  297 				return;
//  298 			}
//  299 			else
//  300 			{
//  301 				ans_loc[0]=0;
//  302 				return;
//  303 			}
//  304 		}
//  305 		else//////////////////////////////////////////第二组圆出错
//  306 		{
//  307 			ans_loc[0]=0;
//  308 			return;
//  309 		}
//  310 	}
//  311 
//  312 
//  313   	if(ans_two_cir1[0]==2)////////////////////////////////////////////// 第一组圆有两个交点
//  314 	{
//  315 		two_circle(data[1].x,data[1].y,data[1].r,data[2].x,data[2].y,data[2].r,ans_two_cir2);////////调用第二组圆求交点函数
//  316 		if(ans_two_cir2[0]==0)////////////////////第二组圆没有交点
//  317 		{
//  318 			ans_loc[0]=0;
//  319 			return;
//  320 		}
//  321 		if(ans_two_cir2[0]==1)///////////////////第二组员有一个交点
//  322 		{
//  323 			if( fabs(ans_two_cir1[1]-ans_two_cir2[1])<ERR && fabs(ans_two_cir1[2]-ans_two_cir2[2])<ERR )
//  324 			{
//  325 				ans_loc[0]=1;
//  326 				ans_loc[1]=ans_two_cir1[1];
//  327 				ans_loc[2]=ans_two_cir1[2];
//  328 				return;
//  329 			}
//  330 			if( fabs(ans_two_cir1[3]-ans_two_cir2[1])<ERR && fabs(ans_two_cir1[4]-ans_two_cir2[2])<ERR )
//  331 			{
//  332 				ans_loc[0]=1;
//  333 				ans_loc[1]=ans_two_cir1[3];
//  334 				ans_loc[2]=ans_two_cir1[4];
//  335 				return;
//  336 			}
//  337 			else
//  338 			{
//  339 				ans_loc[0]=0;
//  340 				return;
//  341 			}
//  342 		}
//  343 		if(ans_two_cir2[0]==2)///////////////////第二组员有两个交点
//  344 		{
//  345 			if( fabs(ans_two_cir1[1]-ans_two_cir2[1])<ERR && fabs(ans_two_cir1[2]-ans_two_cir2[2])<ERR )
//  346 			{
//  347 				ans_loc[0]=1;
//  348 				ans_loc[1]=ans_two_cir1[1];
//  349 				ans_loc[2]=ans_two_cir1[2];
//  350 				return;
//  351 			}
//  352 			if( fabs(ans_two_cir1[3]-ans_two_cir2[1])<ERR && fabs(ans_two_cir1[4]-ans_two_cir2[2])<ERR )
//  353 			{
//  354 				ans_loc[0]=1;
//  355 				ans_loc[1]=ans_two_cir1[3];
//  356 				ans_loc[2]=ans_two_cir1[4];
//  357 				return;
//  358 			}
//  359 			if( fabs(ans_two_cir1[1]-ans_two_cir2[3])<ERR && fabs(ans_two_cir1[2]-ans_two_cir2[4])<ERR )
//  360 			{
//  361 				ans_loc[0]=1;
//  362 				ans_loc[1]=ans_two_cir1[1];
//  363 				ans_loc[2]=ans_two_cir1[2];
//  364 				return;
//  365 			}
//  366 			if( fabs(ans_two_cir1[3]-ans_two_cir2[3])<ERR && fabs(ans_two_cir1[4]-ans_two_cir2[4])<ERR )
//  367 			{
//  368 				ans_loc[0]=1;
//  369 				ans_loc[1]=ans_two_cir1[3];
//  370 				ans_loc[2]=ans_two_cir1[4];
//  371 				return;
//  372 			}
//  373 			else
//  374 			{
//  375 				ans_loc[0]=0;
//  376 				return;
//  377 			}
//  378 		}
//  379 		else//////////////////////////////////////////第二组圆出错
//  380 		{
//  381 			ans_loc[0]=0;
//  382 			return;
//  383 		}
//  384 	}
//  385 
//  386 	else//////////////////////////////////////////////////////////////////// 第一组圆出错
//  387 	{
//  388 		printf("1error\n");
//  389 		return;
//  390 	}
//  391 
//  392 
//  393 }
//  394 ////////////////////////////////////////////////////////////////////////////////// locate
//  395 
//  396 
//  397 
//  398 ///////////////////////////////////////////////////////////////////////////////////
//  399 //
//  400 //计算两个圆的焦点
//  401 void two_circle(double x1,double y1,double r1,double x2,double y2,double r2,double* ans_two_cir)
//  402 {
//  403   
//  404   	double ans_qua_equ[3];                     // 暂时存放二次方程的解 第一个存解的个数
//  405 	double d;                                  // 两个圆的距离
//  406 	double k;                                  // 两圆心直线的斜率
//  407 	double k1;                                 // 与k垂直
//  408 	double a,b,c;                              // 暂时存放二次方程的参数
//  409 	double x11,x22,x33,x44,y11,y22,y33,y44;    // 暂时存放中间的可能交点
//  410 	double xa,ya;                              // 有两个交点，两圆心的直线和两圆焦点直线的交点（xa，ya）
//  411 	double d1,d2;                              // 存放交点（xa，ya）到两圆心的距离
//  412 	double temp;                               // 临时变量用于运算方便
//  413 
//  414  	
//  415 
//  416 	if( d>r1+r2 || d<fabs(r1-r2) )///////////////////////////////////////////////////////////////圆无交点
//  417 	{
//  418 		ans_two_cir[0]=0;
//  419 		return;
//  420 	}
//  421 
//  422 	if( d==r1+r2 || d==fabs(r1-r2) )////////////////////////////////////////////////////////////圆有一个交点
//  423 	{
//  424 		k=(y1-y2)/(x1-x2);  //
//  425 		a=k*k+1;
//  426 		b=-2*(k*k+1)*x1;
//  427 		c=(k*k+1)*x1*x1-r1*r1;
//  428 		quadratic_equation(a,b,c,ans_qua_equ);
//  429 
//  430 		if(ans_qua_equ[0]==2)
//  431 		{
//  432 			x11=ans_qua_equ[1];
//  433 			x22=ans_qua_equ[2];
//  434 			y11=k*x11-k*x1+y1;
//  435 			y22=k*x22-k*x1+y1;
//  436 
//  437 			a=k*k+1;
//  438 			b=-2*(k*k+1)*x2;
//  439 			c=(k*k+1)*x2*x2-r2*r2;
//  440 
//  441 			quadratic_equation(a,b,c,ans_qua_equ);
//  442 			if(ans_qua_equ[0]==2)
//  443 			{
//  444 				x33=ans_qua_equ[1];
//  445 				x44=ans_qua_equ[2];
//  446 				y33=k*x33-k*x2+y2;
//  447 				y44=k*x44-k*x2+y2;
//  448 
//  449 				if(x11==x33&&y11==y33)
//  450 				{
//  451 					ans_two_cir[0]=1;
//  452 					ans_two_cir[1]=x11;
//  453 					ans_two_cir[1]=y11;
//  454 					return;
//  455 				}
//  456 				if(x11==x44&&y11==44)
//  457 				{
//  458 					ans_two_cir[0]=1;
//  459 					ans_two_cir[1]=x11;
//  460 					ans_two_cir[1]=y11;
//  461 					return;
//  462 				}
//  463 				if(x22==x33&&y22==y33)
//  464 				{
//  465 					ans_two_cir[0]=1;
//  466 					ans_two_cir[1]=x22;
//  467 					ans_two_cir[1]=y22;
//  468 					return;
//  469 				}
//  470 				if(x22==x44&&y22==y44)
//  471 				{
//  472 					ans_two_cir[0]=1;
//  473 					ans_two_cir[1]=x22;
//  474 					ans_two_cir[1]=y22;
//  475 					return;
//  476 				}
//  477 				else
//  478 				{
//  479 					ans_two_cir[0]=0;
//  480 					return;
//  481 				}
//  482 			}
//  483 			else
//  484 			{
//  485 				ans_two_cir[0]=0;
//  486 				return;
//  487 			}		
//  488 
//  489 		}
//  490 		else
//  491 		{
//  492 			ans_two_cir[0]=0;
//  493 			return;
//  494 		}
//  495 	}
//  496 
//  497 	if( d<r1+r2 && d>fabs(r1-r2) )//////////////////////////////////////////////////////////////圆有两个交点
//  498 	{
//  499 
//  500 		d=sqrt( (x1-x2)*(x1-x2)+(y1-y2)*(y1-y2) );
//  501 		//////////////////////////////////////////////////////////////////////////算d1的值
//  502 		a=2;
//  503 		b=-2*d;
//  504 		c=r2*r2-r1*r1-d*d;
//  505 
//  506 		quadratic_equation(a,b,c,ans_qua_equ);
//  507 
//  508 		if(ans_qua_equ[0]==1)   /////////////////////////////////// 一个解
//  509 		{
//  510 			if(ans_qua_equ[1]>0)
//  511 			{
//  512 				d1=ans_qua_equ[1];
//  513 				d2=d-d1;
//  514 			}
//  515 			else
//  516 			{
//  517 				ans_two_cir[0]=0;
//  518 			    return;
//  519 			}
//  520 		}
//  521 		else
//  522 		{
//  523 			if(ans_qua_equ[0]==2)  /////////////////////////////////两个解
//  524 			{
//  525 				if(ans_qua_equ[1]>0)
//  526 				{
//  527 					d1=ans_qua_equ[1];
//  528 					d2=d-d1;
//  529 				}
//  530 				else
//  531 				{
//  532 					if(ans_qua_equ[2]>0)
//  533 					{
//  534 						d1=ans_qua_equ[2];
//  535 						d2=d-d1;
//  536 					}
//  537 					else
//  538 					{
//  539 						ans_two_cir[0]=0;
//  540 						return;
//  541 					}
//  542 				}
//  543 			}
//  544 			else
//  545 			{
//  546 				ans_two_cir[0]=0;
//  547 				return;
//  548 			}
//  549 
//  550 		}  ////////////////////////////////////////////////////////////// 判断d1的解结束
//  551 
//  552 		//////////////////////////////////////////////////////////////////求a的交点坐标
//  553 		k=(y1-y2)/(x1-x2);
//  554 		a=k*k+1;
//  555 		b=2*x1*(k*k+1);
//  556 		c=(k*k+1)*x1*x1-d1*d1;
//  557 		quadratic_equation(a,b,c,ans_qua_equ);
//  558 
//  559 		if(ans_qua_equ[0]==2)
//  560 		{
//  561 			x11=ans_qua_equ[1];
//  562 			y11=k*x11-k*x1+y1;
//  563 			x22=ans_qua_equ[2];
//  564 			y22=k*x22-k*x1+y1;
//  565 
//  566 			a=k*k+1;
//  567 			b=2*x2*(k*k+1);
//  568 			c=(k*k+1)*x2*x2-d2*d2;
//  569 			quadratic_equation(a,b,c,ans_qua_equ);
//  570 
//  571 			if(ans_qua_equ[0]==2)
//  572 			{
//  573 				x33=ans_qua_equ[1];
//  574 				x44=ans_qua_equ[2];
//  575 				y33=k*x33-k*x2+y2;
//  576 				y44=k*x44-k*x2+y2;
//  577 				
//  578 				if(x11==x33&&y11==y33)
//  579 				{	
//  580 					xa=x11;
//  581 					ya=y11;
//  582 				}
//  583 				if(x11==x44&&y11==y44)
//  584 				{
//  585 					xa=x11;
//  586 					ya=y11;
//  587 				}
//  588 				if(x22==x33&&y22==y33)
//  589 				{
//  590 					xa=x22;
//  591 					ya=y22;
//  592 				}
//  593 				if(x22==x44&&y22==y44)
//  594 				{
//  595 					xa=x22;
//  596 					ya=y22;
//  597 				}
//  598 				else
//  599 				{
//  600 					ans_two_cir[0]=0;
//  601 					return;
//  602 				}
//  603 			}
//  604 			else
//  605 			{
//  606 				ans_two_cir[0]=0;
//  607 				return;
//  608 			}
//  609 
//  610 		}
//  611 		else
//  612 		{
//  613 			ans_two_cir[0]=0;
//  614 			return;
//  615 		}/////////////////////////////////////////////////////////////求a的坐标结束
//  616 
//  617 ///////////////////////////////////////////////////////////////////////求圆的两个交点
//  618 
//  619 		k1=-1/k;
//  620 		temp=ya-y1-k1*xa;
//  621 
//  622 		a=k1*k1+1;
//  623 		b=-2*(x1+temp*k1);
//  624 		c=x1*x1+temp*temp;
//  625 
//  626 		quadratic_equation(a,b,c,ans_qua_equ);
//  627 
//  628 		if(ans_qua_equ[0]==2)
//  629 		{
//  630 			
//  631 			x11=ans_qua_equ[1];
//  632 			x22=ans_qua_equ[2];
//  633 			y11=k1*x11-k1*xa+ya;
//  634 			y22=k1*x22-k1*xa+ya;
//  635 
//  636 			ans_two_cir[0]=2;
//  637 			ans_two_cir[1]=x11;
//  638 			ans_two_cir[2]=y11;
//  639 			ans_two_cir[3]=x22;
//  640 			ans_two_cir[4]=y22;
//  641 			return;
//  642 		}
//  643 		else
//  644 		{
//  645 			ans_two_cir[0]=0;
//  646 			return;
//  647 		}
//  648 
//  649 //////////////////////////////////////////////////////////////////求圆的两个交点结束
//  650 	}//圆有两个交点
//  651 
//  652 
//  653 
//  654   
//  655   
//  656 }
//  657 //////////////////////////////////////////////////////////////////////// two_circle
//  658 
//  659 
//  660 
//  661 
//  662 
//  663 
//  664 
//  665 ///////////////////////////////////////////////////////////////////////////////////////////
//  666 ///
//  667 ////计算二次方程的解
//  668 void quadratic_equation(double a,double b,double c,double* ans_qua_equ)
//  669 {
//  670  	double p;               //判断有几个根
//  671 	p=b*b-4*a*c;
//  672 	if(p<0)
//  673 	{
//  674 		ans_qua_equ[0]=0;
//  675 		return;
//  676 	}
//  677 	if(p==0)
//  678 	{
//  679 		ans_qua_equ[0]=1;
//  680 		ans_qua_equ[1]=-b/(2*a);
//  681 		return;
//  682 	}
//  683 	if(p>0)
//  684 	{
//  685 		ans_qua_equ[0]=2;
//  686 		ans_qua_equ[1]=(-b+sqrt(p)) / (2*a);
//  687 		ans_qua_equ[2]=(-b-sqrt(p)) / (2*a);
//  688 		return;
//  689 	}
//  690   
//  691 }
//  692 ////////////////////////////////////////////////////////////////////////quadratic_equation
//  693 
//  694 */
// 
// 370 bytes in segment BANKED_CODE
//  24 bytes in segment BANK_RELAYS
//  16 bytes in segment XDATA_ROM_C
//  23 bytes in segment XDATA_Z
// 
// 394 bytes of CODE  memory
//  16 bytes of CONST memory
//  23 bytes of XDATA memory
//
//Errors: none
//Warnings: 2
