###############################################################################
#                                                                             #
# IAR C/C++ Compiler V8.10.1.10194/W32 for 8051         03/Jan/2019  19:48:11 #
# Copyright 2004-2011 IAR Systems AB.                                         #
#                                                                             #
#    Core               =  plain                                              #
#    Code model         =  banked                                             #
#    Data model         =  large                                              #
#    Calling convention =  xdata reentrant                                    #
#    Constant location  =  data_rom                                           #
#    Dptr setup         =  1,16                                               #
#    Source file        =  C:\Texas Instruments\ZStack-CC2530-2.5.1a\Projects #
#                          \zstack\Samples\GenericApp\Source\DHT110.c         #
#    Command line       =  -f "C:\Texas Instruments\ZStack-CC2530-2.5.1a\Proj #
#                          ects\zstack\Samples\GenericApp\CC2530DB\..\..\..\T #
#                          ools\CC2530DB\f8wCoord.cfg" (-DCPU32MHZ            #
#                          -DROOT=__near_func -DMAC_CFG_APP_PENDING_QUEUE=TRU #
#                          E -DMAC_CFG_TX_DATA_MAX=5 -DMAC_CFG_TX_MAX=8       #
#                          -DMAC_CFG_RX_MAX=5 -DZDO_COORDINATOR -DRTR_NWK)    #
#                          -f "C:\Texas Instruments\ZStack-CC2530-2.5.1a\Proj #
#                          ects\zstack\Samples\GenericApp\CC2530DB\..\..\..\T #
#                          ools\CC2530DB\f8wConfig.cfg" (-DZIGBEEPRO          #
#                          -DSECURE=0 -DZG_SECURE_DYNAMIC=0 -DREFLECTOR       #
#                          -DDEFAULT_CHANLIST=0x00000800                      #
#                          -DZDAPP_CONFIG_PAN_ID=0xFFFF                       #
#                          -DNWK_START_DELAY=100 -DEXTENDED_JOINING_RANDOM_MA #
#                          SK=0x007F -DBEACON_REQUEST_DELAY=100               #
#                          -DBEACON_REQ_DELAY_MASK=0x00FF                     #
#                          -DLINK_STATUS_JITTER_MASK=0x007F                   #
#                          -DROUTE_EXPIRY_TIME=30 -DAPSC_ACK_WAIT_DURATION_PO #
#                          LLED=3000 -DNWK_INDIRECT_MSG_TIMEOUT=7             #
#                          -DMAX_RREQ_ENTRIES=8 -DAPSC_MAX_FRAME_RETRIES=3    #
#                          -DNWK_MAX_DATA_RETRIES=2                           #
#                          -DMAX_POLL_FAILURE_RETRIES=2 -DMAX_BCAST=9         #
#                          -DAPS_MAX_GROUPS=16 -DMAX_RTG_ENTRIES=40           #
#                          -DNWK_MAX_BINDING_ENTRIES=4                        #
#                          -DMAX_BINDING_CLUSTER_IDS=4 "-DDEFAULT_KEY={0x01,  #
#                          0x03, 0x05, 0x07, 0x09, 0x0B, 0x0D, 0x0F, 0x00,    #
#                          0x02, 0x04, 0x06, 0x08, 0x0A, 0x0C, 0x0D}"         #
#                          -DMAC_MAX_FRAME_SIZE=116                           #
#                          -DZDNWKMGR_MIN_TRANSMISSIONS=20 "-DCONST=const     #
#                          __code" -DGENERIC=__generic                        #
#                          -DRFD_RCVC_ALWAYS_ON=FALSE -DPOLL_RATE=1000        #
#                          -DQUEUED_POLL_RATE=100 -DRESPONSE_POLL_RATE=100)   #
#                          -DREJOIN_POLL_RATE=440 "C:\Texas                   #
#                          Instruments\ZStack-CC2530-2.5.1a\Projects\zstack\S #
#                          amples\GenericApp\Source\DHT110.c" -D ZTOOL_P1 -D  #
#                          MT_TASK -D MT_SYS_FUNC -D MT_ZDO_FUNC -D           #
#                          LCD_SUPPORTED=DEBUG -D HAL_UART=TRUE -lC           #
#                          "C:\Texas Instruments\ZStack-CC2530-2.5.1a\Project #
#                          s\zstack\Samples\GenericApp\CC2530DB\CoordinatorEB #
#                          \List\" -lA "C:\Texas Instruments\ZStack-CC2530-2. #
#                          5.1a\Projects\zstack\Samples\GenericApp\CC2530DB\C #
#                          oordinatorEB\List\" --diag_suppress Pe001,Pa010    #
#                          -o "C:\Texas Instruments\ZStack-CC2530-2.5.1a\Proj #
#                          ects\zstack\Samples\GenericApp\CC2530DB\Coordinato #
#                          rEB\Obj\" -e --no_code_motion --debug              #
#                          --core=plain --dptr=16,1 --data_model=large        #
#                          --code_model=banked --calling_convention=xdata_ree #
#                          ntrant --place_constants=data_rom                  #
#                          --nr_virtual_regs 16 -I "C:\Texas                  #
#                          Instruments\ZStack-CC2530-2.5.1a\Projects\zstack\S #
#                          amples\GenericApp\CC2530DB\" -I "C:\Texas          #
#                          Instruments\ZStack-CC2530-2.5.1a\Projects\zstack\S #
#                          amples\GenericApp\CC2530DB\..\Source\" -I          #
#                          "C:\Texas Instruments\ZStack-CC2530-2.5.1a\Project #
#                          s\zstack\Samples\GenericApp\CC2530DB\..\..\..\ZMai #
#                          n\TI2530DB\" -I "C:\Texas                          #
#                          Instruments\ZStack-CC2530-2.5.1a\Projects\zstack\S #
#                          amples\GenericApp\CC2530DB\..\..\..\..\..\Componen #
#                          ts\hal\include\" -I "C:\Texas                      #
#                          Instruments\ZStack-CC2530-2.5.1a\Projects\zstack\S #
#                          amples\GenericApp\CC2530DB\..\..\..\..\..\Componen #
#                          ts\hal\target\CC2530EB\" -I "C:\Texas              #
#                          Instruments\ZStack-CC2530-2.5.1a\Projects\zstack\S #
#                          amples\GenericApp\CC2530DB\..\..\..\..\..\Componen #
#                          ts\mac\include\" -I "C:\Texas                      #
#                          Instruments\ZStack-CC2530-2.5.1a\Projects\zstack\S #
#                          amples\GenericApp\CC2530DB\..\..\..\..\..\Componen #
#                          ts\mac\high_level\" -I "C:\Texas                   #
#                          Instruments\ZStack-CC2530-2.5.1a\Projects\zstack\S #
#                          amples\GenericApp\CC2530DB\..\..\..\..\..\Componen #
#                          ts\mac\low_level\srf04\" -I "C:\Texas              #
#                          Instruments\ZStack-CC2530-2.5.1a\Projects\zstack\S #
#                          amples\GenericApp\CC2530DB\..\..\..\..\..\Componen #
#                          ts\mac\low_level\srf04\single_chip\" -I "C:\Texas  #
#                          Instruments\ZStack-CC2530-2.5.1a\Projects\zstack\S #
#                          amples\GenericApp\CC2530DB\..\..\..\..\..\Componen #
#                          ts\mt\" -I "C:\Texas Instruments\ZStack-CC2530-2.5 #
#                          .1a\Projects\zstack\Samples\GenericApp\CC2530DB\.. #
#                          \..\..\..\..\Components\osal\include\" -I          #
#                          "C:\Texas Instruments\ZStack-CC2530-2.5.1a\Project #
#                          s\zstack\Samples\GenericApp\CC2530DB\..\..\..\..\. #
#                          .\Components\services\saddr\" -I "C:\Texas         #
#                          Instruments\ZStack-CC2530-2.5.1a\Projects\zstack\S #
#                          amples\GenericApp\CC2530DB\..\..\..\..\..\Componen #
#                          ts\services\sdata\" -I "C:\Texas                   #
#                          Instruments\ZStack-CC2530-2.5.1a\Projects\zstack\S #
#                          amples\GenericApp\CC2530DB\..\..\..\..\..\Componen #
#                          ts\stack\af\" -I "C:\Texas                         #
#                          Instruments\ZStack-CC2530-2.5.1a\Projects\zstack\S #
#                          amples\GenericApp\CC2530DB\..\..\..\..\..\Componen #
#                          ts\stack\nwk\" -I "C:\Texas                        #
#                          Instruments\ZStack-CC2530-2.5.1a\Projects\zstack\S #
#                          amples\GenericApp\CC2530DB\..\..\..\..\..\Componen #
#                          ts\stack\sapi\" -I "C:\Texas                       #
#                          Instruments\ZStack-CC2530-2.5.1a\Projects\zstack\S #
#                          amples\GenericApp\CC2530DB\..\..\..\..\..\Componen #
#                          ts\stack\sec\" -I "C:\Texas                        #
#                          Instruments\ZStack-CC2530-2.5.1a\Projects\zstack\S #
#                          amples\GenericApp\CC2530DB\..\..\..\..\..\Componen #
#                          ts\stack\sys\" -I "C:\Texas                        #
#                          Instruments\ZStack-CC2530-2.5.1a\Projects\zstack\S #
#                          amples\GenericApp\CC2530DB\..\..\..\..\..\Componen #
#                          ts\stack\zdo\" -I "C:\Texas                        #
#                          Instruments\ZStack-CC2530-2.5.1a\Projects\zstack\S #
#                          amples\GenericApp\CC2530DB\..\..\..\..\..\Componen #
#                          ts\zmac\" -I "C:\Texas Instruments\ZStack-CC2530-2 #
#                          .5.1a\Projects\zstack\Samples\GenericApp\CC2530DB\ #
#                          ..\..\..\..\..\Components\zmac\f8w\" -Ohz          #
#                          --require_prototypes                               #
#    List file          =  C:\Texas Instruments\ZStack-CC2530-2.5.1a\Projects #
#                          \zstack\Samples\GenericApp\CC2530DB\CoordinatorEB\ #
#                          List\DHT110.lst                                    #
#    Object file        =  C:\Texas Instruments\ZStack-CC2530-2.5.1a\Projects #
#                          \zstack\Samples\GenericApp\CC2530DB\CoordinatorEB\ #
#                          Obj\DHT110.r51                                     #
#                                                                             #
#                                                                             #
###############################################################################

C:\Texas Instruments\ZStack-CC2530-2.5.1a\Projects\zstack\Samples\GenericApp\Source\DHT110.c
      1          #include "OSAL.h"
      2          #include "AF.h"
      3          #include "ZDApp.h"
      4          #include "ZDObject.h"
      5          #include "ZDProfile.h"
      6          #include <string.h>
      7          #include <ioCC2530.h>
      8          //#include "GenericApp.h"   
      9          #include "DebugTrace.h"
     10          
     11          #include "Coordinator.h"                        //add
     12          
     13          #if !defined( WIN32 )
     14            #include "OnBoard.h"
     15          #endif
     16          
     17          /* HAL */
     18          #include "hal_lcd.h"
     19          #include "hal_led.h"
     20          #include "hal_key.h"
     21          #include "hal_uart.h"

   \                                 In  segment XDATA_Z, align 1, keep-with-next
     22          unsigned char uartbuf[10];
   \                     uartbuf:
   \   000000                DS 10
   \   00000A                REQUIRE __INIT_XDATA_Z
     23          /*吴棉达修改 #define SEND_DATA_EVENT 0x01*/
     24          
     25          // This list should be filled with Application specific Cluster IDs.

   \                                 In  segment XDATA_ROM_C, align 1
     26          const cId_t GenericApp_ClusterList[GENERICAPP_MAX_CLUSTERS] =
   \                     GenericApp_ClusterList:
   \   000000   0100         DW 1
     27          {
     28            GENERICAPP_CLUSTERID  
     29          };
     30          

   \                                 In  segment XDATA_ROM_C, align 1
     31          const SimpleDescriptionFormat_t GenericApp_SimpleDesc =//简单设备描述符
   \                     GenericApp_SimpleDesc:
   \   000000   0A           DB 10
   \   000001   040F         DW 3844
   \   000003   0100         DW 1
   \   000005   00           DB 0
   \   000006   01           DB 1
   \   000007   ....         DW GenericApp_ClusterList
   \   000009   00           DB 0
   \   00000A   0000         DW 0H
     32          {
     33            GENERICAPP_ENDPOINT,              //  int Endpoint;
     34            GENERICAPP_PROFID,                //  uint16 AppProfId[2];
     35            GENERICAPP_DEVICEID,              //  uint16 AppDeviceId[2];
     36            GENERICAPP_DEVICE_VERSION,        //  int   AppDevVer:4;
     37            GENERICAPP_FLAGS,                 //  int   AppFlags:4;
     38            GENERICAPP_MAX_CLUSTERS,          //  byte  AppNumInClusters;
     39            (cId_t *)GenericApp_ClusterList,  //  byte *pAppInClusterList;
     40            0,          //  改 byte  AppNumInClusters;
     41            (cId_t *)NULL   //  改 byte *pAppInClusterList;
     42          };
     43          
     44          // This is the Endpoint/Interface description.  It is defined here, but
     45          // filled-in in GenericApp_Init().  Another way to go would be to fill
     46          // in the structure here and make it a "const" (in code space).  The
     47          // way it's defined in this sample app it is define in RAM.

   \                                 In  segment XDATA_Z, align 1, keep-with-next
     48          endPointDesc_t GenericApp_epDesc;//节点描述符
   \                     GenericApp_epDesc:
   \   000000                DS 6
   \   000006                REQUIRE __INIT_XDATA_Z
     49          
     50          /*********************************************************************
     51           * EXTERNAL VARIABLES
     52           */
     53          
     54          /*********************************************************************
     55           * EXTERNAL FUNCTIONS
     56           */
     57          
     58          /*********************************************************************
     59           * LOCAL VARIABLES
     60           */

   \                                 In  segment XDATA_Z, align 1, keep-with-next
     61          byte GenericApp_TaskID;   // Task ID for internal task/event processing任务优先级
   \                     GenericApp_TaskID:
   \   000000                DS 1
   \   000001                REQUIRE __INIT_XDATA_Z
     62                                    // This variable will be received when
     63                                    // GenericApp_Init() is called.
     64          
     65          

   \                                 In  segment XDATA_Z, align 1, keep-with-next
     66          byte GenericApp_TransID;  // This is the unique message ID (counter)数据发送序列号
   \                     GenericApp_TransID:
   \   000000                DS 1
   \   000001                REQUIRE __INIT_XDATA_Z
     67          /*吴棉达修改 unsigned char uartbuf[128];
     68          unsigned char uartbuf2[128];
     69          
     70          
     71          /*********************************************************************
                 ^
Warning[Pe009]: nested comment is not allowed
     72           * LOCAL FUNCTIONS
     73           */
     74           void GenericApp_MessageMSGCB( afIncomingMSGPacket_t *pckt ); //消息处理函数
     75          void GenericApp_SendTheMessage( void );//数据发送函数
     76          //static void rxCB(uint8 port,uint8 event);
     77          
     78          /*********************************************************************
     79           * NETWORK LAYER CALLBACKS
     80           */
     81          
     82          /*********************************************************************
     83           * PUBLIC FUNCTIONS
     84           */
     85          static void rxCB(uint8 port,uint8 event);
     86          

   \                                 In  segment BANKED_CODE, align 1, keep-with-next
     87          void GenericApp_Init( byte task_id )//任务初始化函数
   \                     GenericApp_Init:
     88          {
   \   000000   74F7         MOV     A,#-0x9
   \   000002   12....       LCALL   ?BANKED_ENTER_XDATA
   \   000005                ; Saved register size: 9
   \   000005                ; Auto size: 0
   \   000005   E9           MOV     A,R1
     89            halUARTCfg_t uartConfig;
     90            GenericApp_TaskID = task_id;
   \   000006   90....       MOV     DPTR,#GenericApp_TaskID
   \   000009   F0           MOVX    @DPTR,A
     91            GenericApp_TransID = 0;//发送序列包置零，每发送一个包，序列自加一
   \   00000A   90....       MOV     DPTR,#GenericApp_TransID
   \   00000D   E4           CLR     A
   \   00000E   F0           MOVX    @DPTR,A
     92          
     93            // Device hardware initialization can be added here or in main() (Zmain.c).
     94            // If the hardware is application specific - add it here.
     95            // If the hardware is other parts of the device add it in main().
     96          
     97           
     98            GenericApp_epDesc.endPoint = GENERICAPP_ENDPOINT;
   \   00000F   90....       MOV     DPTR,#GenericApp_epDesc
   \   000012   740A         MOV     A,#0xa
   \   000014   F0           MOVX    @DPTR,A
     99            GenericApp_epDesc.task_id = &GenericApp_TaskID;
   \   000015   A3           INC     DPTR
   \   000016   74..         MOV     A,#GenericApp_TaskID & 0xff
   \   000018   F0           MOVX    @DPTR,A
   \   000019   A3           INC     DPTR
   \   00001A   74..         MOV     A,#(GenericApp_TaskID >> 8) & 0xff
   \   00001C   F0           MOVX    @DPTR,A
    100            GenericApp_epDesc.simpleDesc
    101                      = (SimpleDescriptionFormat_t *)&GenericApp_SimpleDesc;
   \   00001D   A3           INC     DPTR
   \   00001E   74..         MOV     A,#GenericApp_SimpleDesc & 0xff
   \   000020   F0           MOVX    @DPTR,A
   \   000021   A3           INC     DPTR
   \   000022   74..         MOV     A,#(GenericApp_SimpleDesc >> 8) & 0xff
   \   000024   F0           MOVX    @DPTR,A
    102            GenericApp_epDesc.latencyReq = noLatencyReqs;
   \   000025   A3           INC     DPTR
   \   000026   E4           CLR     A
   \   000027   F0           MOVX    @DPTR,A
    103          
    104            // Register the endpoint description with the AF
    105            afRegister( &GenericApp_epDesc );//节点注册，注册后才能使用OSAL提供的系统服务
   \   000028                ; Setup parameters for call to function afRegister
   \   000028   7A..         MOV     R2,#GenericApp_epDesc & 0xff
   \   00002A   7B..         MOV     R3,#(GenericApp_epDesc >> 8) & 0xff
   \   00002C   12....       LCALL   ??afRegister?relay
    106          
    107            /*uartConfig.configured   =TRUE;
    108            uartConfig.baudRate     =HAL_UART_BR_9600;
    109            uartConfig.flowControl  =FALSE;
    110            uartConfig.callBackFunc =NULL;
    111            HalUARTOpen(0,&uartConfig);*/
    112          }
   \   00002F   7F01         MOV     R7,#0x1
   \   000031   02....       LJMP    ?BANKED_LEAVE_XDATA
    113            // Register for all key events - This app will handle all key events
    114          
    115          /*P1DIR |= 0x11;   //P1.4定义为输出口，即P0_4
    116          P1_1=1;
    117          }
    118          */
    119          
    120          /*static void rxCB(uint8 port,uint8 event)
    121          {
    122              HalUARTRead(0,uartbuf,3);
    123              GenericApp_SendTheMessage();
    124          }
    125          */

   \                                 In  segment BANKED_CODE, align 1, keep-with-next
    126          UINT16 GenericApp_ProcessEvent( byte task_id, UINT16 events )
   \                     GenericApp_ProcessEvent:
    127          {
   \   000000   74F4         MOV     A,#-0xc
   \   000002   12....       LCALL   ?BANKED_ENTER_XDATA
   \   000005                ; Saved register size: 12
   \   000005                ; Auto size: 0
   \   000005   8A..         MOV     ?V0 + 0,R2
   \   000007   8B..         MOV     ?V0 + 1,R3
    128            afIncomingMSGPacket_t *MSGpkt;
    129            if ( events & SYS_EVENT_MSG )
   \   000009   EB           MOV     A,R3
   \   00000A   5480         ANL     A,#0x80
   \   00000C   6043         JZ      ??GenericApp_ProcessEvent_0
    130            {
    131              MSGpkt = (afIncomingMSGPacket_t *)osal_msg_receive( GenericApp_TaskID );
   \   00000E                ; Setup parameters for call to function osal_msg_receive
   \   00000E   8024         SJMP    ??GenericApp_ProcessEvent_1
    132              while ( MSGpkt )
    133              {
    134                switch ( MSGpkt->hdr.event )
   \                     ??GenericApp_ProcessEvent_2:
   \   000010   8E82         MOV     DPL,R6
   \   000012   8F83         MOV     DPH,R7
   \   000014   E0           MOVX    A,@DPTR
   \   000015   641A         XRL     A,#0x1a
   \   000017   7014         JNZ     ??GenericApp_ProcessEvent_3
    135                {
    136                  case AF_INCOMING_MSG_CMD://是指的收到从其他节点应用层发给自己的数据包
    137                     HalLedBlink(HAL_LED_1,0,90,500);
   \   000019                ; Setup parameters for call to function HalLedBlink
   \   000019   7CF4         MOV     R4,#-0xc
   \   00001B   7D01         MOV     R5,#0x1
   \   00001D   7B5A         MOV     R3,#0x5a
   \   00001F   7A00         MOV     R2,#0x0
   \   000021   7901         MOV     R1,#0x1
   \   000023   12....       LCALL   ??HalLedBlink?relay
    138                    GenericApp_MessageMSGCB( MSGpkt );
   \   000026                ; Setup parameters for call to function GenericApp_MessageMSGCB
   \   000026   EE           MOV     A,R6
   \   000027   FA           MOV     R2,A
   \   000028   EF           MOV     A,R7
   \   000029   FB           MOV     R3,A
   \   00002A   12....       LCALL   ??GenericApp_MessageMSGCB?relay
    139                    break;
    140                  default:
    141                    break;
    142                }
    143          
    144                // Release the memory
    145                osal_msg_deallocate( (uint8 *)MSGpkt );//释放内存
   \                     ??GenericApp_ProcessEvent_3:
   \   00002D                ; Setup parameters for call to function osal_msg_deallocate
   \   00002D   EE           MOV     A,R6
   \   00002E   FA           MOV     R2,A
   \   00002F   EF           MOV     A,R7
   \   000030   FB           MOV     R3,A
   \   000031   12....       LCALL   ??osal_msg_deallocate?relay
    146          
    147                // Next
    148                MSGpkt = (afIncomingMSGPacket_t *)osal_msg_receive( GenericApp_TaskID );
   \   000034                ; Setup parameters for call to function osal_msg_receive
   \                     ??GenericApp_ProcessEvent_1:
   \   000034   90....       MOV     DPTR,#GenericApp_TaskID
   \   000037   E0           MOVX    A,@DPTR
   \   000038   F9           MOV     R1,A
   \   000039   12....       LCALL   ??osal_msg_receive?relay
   \   00003C   8A..         MOV     ?V0 + 2,R2
   \   00003E   8B..         MOV     ?V0 + 3,R3
   \   000040   AE..         MOV     R6,?V0 + 2
   \   000042   AF..         MOV     R7,?V0 + 3
    149              }
   \   000044   EE           MOV     A,R6
   \   000045   4F           ORL     A,R7
   \   000046   70C8         JNZ     ??GenericApp_ProcessEvent_2
    150          
    151              // return unprocessed events
    152              return (events ^ SYS_EVENT_MSG);
   \   000048   AA..         MOV     R2,?V0 + 0
   \   00004A   E5..         MOV     A,?V0 + 1
   \   00004C   6480         XRL     A,#0x80
   \   00004E   FB           MOV     R3,A
   \   00004F   8004         SJMP    ??GenericApp_ProcessEvent_4
    153            }
    154            /*吴棉达修改 if(events & SEND_DATA_EVENT)
    155            {
    156              //GenericApp_SendTheMessage();
    157              //osal_start_timerEx(GenericApp_TaskID,SEND_DATA_EVENT,1);
    158              return(events^SEND_DATA_EVENT);
    159            
    160            }
    161          */
    162            // Discard unknown events
    163            return 0;
   \                     ??GenericApp_ProcessEvent_0:
   \   000051   7A00         MOV     R2,#0x0
   \   000053   7B00         MOV     R3,#0x0
   \                     ??GenericApp_ProcessEvent_4:
   \   000055   7F04         MOV     R7,#0x4
   \   000057   02....       LJMP    ?BANKED_LEAVE_XDATA
    164          }
    165          
    166          //unsigned char buffer[20]={'1','2','3','4'};
    167          /*吴棉达修改 static void rxCB(uint8 port,uint8 event)
    168          {
    169            HalUARTRead(0,uartbuf,3);
    170            if(uartbuf[0]=='1'||uartbuf[0]=='0')
    171              GenericApp_SendTheMessage();
    172            //if((uartbuf[0]=='o'&&uartbuf[1]=='n')||(uartbuf[0]=='o'&&uartbuf[1]=='f'))
    173              //GenericApp_SendTheMessage();
    174            //HalUARTWrite(0,uartbuf,3);
    175          }
    176          */

   \                                 In  segment BANKED_CODE, align 1, keep-with-next
    177          void GenericApp_MessageMSGCB( afIncomingMSGPacket_t *pkt )//消息处理
   \                     GenericApp_MessageMSGCB:
    178          {
   \   000000   74F5         MOV     A,#-0xb
   \   000002   12....       LCALL   ?BANKED_ENTER_XDATA
   \   000005                ; Saved register size: 11
   \   000005                ; Auto size: 20
   \   000005   74EC         MOV     A,#-0x14
   \   000007   12....       LCALL   ?ALLOC_XSTACK8
    179            unsigned char buffer[20];
    180            switch ( pkt->clusterId )
   \   00000A   8A82         MOV     DPL,R2
   \   00000C   8B83         MOV     DPH,R3
   \   00000E   A3           INC     DPTR
   \   00000F   A3           INC     DPTR
   \   000010   A3           INC     DPTR
   \   000011   A3           INC     DPTR
   \   000012   E0           MOVX    A,@DPTR
   \   000013   6401         XRL     A,#0x1
   \   000015   7002         JNZ     ??GenericApp_MessageMSGCB_0
   \   000017   A3           INC     DPTR
   \   000018   E0           MOVX    A,@DPTR
   \                     ??GenericApp_MessageMSGCB_0:
   \   000019   7041         JNZ     ??GenericApp_MessageMSGCB_1
    181            {
    182              case GENERICAPP_CLUSTERID:
    183                // "the" message
    184                 //HalLedBlink(HAL_LED_1,0,90,500);
    185                osal_memcpy(buffer,pkt->cmd.Data,9);//将数据拷贝到缓冲区
   \   00001B                ; Setup parameters for call to function osal_memcpy
   \   00001B   EA           MOV     A,R2
   \   00001C   2422         ADD     A,#0x22
   \   00001E   F582         MOV     DPL,A
   \   000020   EB           MOV     A,R3
   \   000021   3400         ADDC    A,#0x0
   \   000023   F583         MOV     DPH,A
   \   000025   E0           MOVX    A,@DPTR
   \   000026   F5..         MOV     ?V0 + 0,A
   \   000028   A3           INC     DPTR
   \   000029   E0           MOVX    A,@DPTR
   \   00002A   F5..         MOV     ?V0 + 1,A
   \   00002C   75..00       MOV     ?V0 + 2,#0x0
   \   00002F   78..         MOV     R0,#?V0 + 0
   \   000031   12....       LCALL   ?PUSH_XSTACK_I_THREE
   \   000034   7C09         MOV     R4,#0x9
   \   000036   7D00         MOV     R5,#0x0
   \   000038   7403         MOV     A,#0x3
   \   00003A   12....       LCALL   ?XSTACK_DISP0_8
   \   00003D   AA82         MOV     R2,DPL
   \   00003F   AB83         MOV     R3,DPH
   \   000041   12....       LCALL   ??osal_memcpy?relay
   \   000044   7403         MOV     A,#0x3
   \   000046   12....       LCALL   ?DEALLOC_XSTACK8
    186                // HalLedBlink(HAL_LED_1,0,90,500);
    187               HalUARTWrite(0,buffer,9);  //往串口写数据，送往PC
   \   000049                ; Setup parameters for call to function HalUARTWrite
   \   000049   7C09         MOV     R4,#0x9
   \   00004B   7D00         MOV     R5,#0x0
   \   00004D   85..82       MOV     DPL,?XSP + 0
   \   000050   85..83       MOV     DPH,?XSP + 1
   \   000053   AA82         MOV     R2,DPL
   \   000055   AB83         MOV     R3,DPH
   \   000057   7900         MOV     R1,#0x0
   \   000059   12....       LCALL   ??HalUARTWrite?relay
    188               
    189               /* if((buffer[0]=='L')&&(buffer[1]=='E')&&(buffer[2]=='D'))
    190                {
    191                  //P1_1=~P1_1;
    192                  HalLedBlink(HAL_LED_1,0,50,1000);
    193                  //HalLedSet(HAL_LED_1,HAL_LED_MODE_OFF);
    194                }
    195              else
    196              {
    197                  HalLedSet(HAL_LED_1,HAL_LED_MODE_ON);
    198              
    199              }
    200                */
    201                break;
    202            }
    203          }
   \                     ??GenericApp_MessageMSGCB_1:
   \   00005C   7414         MOV     A,#0x14
   \   00005E   12....       LCALL   ?DEALLOC_XSTACK8
   \   000061   7F03         MOV     R7,#0x3
   \   000063   02....       LJMP    ?BANKED_LEAVE_XDATA
    204          
    205          
    206          

   \                                 In  segment BANKED_CODE, align 1, keep-with-next
    207          void GenericApp_SendTheMessage( void )
   \                     GenericApp_SendTheMessage:
    208          {
   \   000000   74F6         MOV     A,#-0xa
   \   000002   12....       LCALL   ?BANKED_ENTER_XDATA
   \   000005                ; Saved register size: 10
   \   000005                ; Auto size: 12
   \   000005   74F4         MOV     A,#-0xc
   \   000007   12....       LCALL   ?ALLOC_XSTACK8
    209            HalLedBlink(HAL_LED_2,0,50,800);
   \   00000A                ; Setup parameters for call to function HalLedBlink
   \   00000A   7C20         MOV     R4,#0x20
   \   00000C   7D03         MOV     R5,#0x3
   \   00000E   7B32         MOV     R3,#0x32
   \   000010   7A00         MOV     R2,#0x0
   \   000012   7902         MOV     R1,#0x2
   \   000014   12....       LCALL   ??HalLedBlink?relay
    210            afAddrType_t my_DstAddr;
    211            my_DstAddr.addrMode = (afAddrMode_t)AddrBroadcast;
   \   000017   7408         MOV     A,#0x8
   \   000019   12....       LCALL   ?XSTACK_DISP0_8
   \   00001C   740F         MOV     A,#0xf
   \   00001E   F0           MOVX    @DPTR,A
    212            my_DstAddr.endPoint = GENERICAPP_ENDPOINT;
   \   00001F   7409         MOV     A,#0x9
   \   000021   12....       LCALL   ?XSTACK_DISP0_8
   \   000024   740A         MOV     A,#0xa
   \   000026   F0           MOVX    @DPTR,A
    213            my_DstAddr.addr.shortAddr = 0xffff;//0xffff是zd的网络地址
   \   000027   85..82       MOV     DPL,?XSP + 0
   \   00002A   85..83       MOV     DPH,?XSP + 1
   \   00002D   74FF         MOV     A,#-0x1
   \   00002F   F0           MOVX    @DPTR,A
   \   000030   A3           INC     DPTR
   \   000031   F0           MOVX    @DPTR,A
    214            AF_DataRequest( &my_DstAddr, &GenericApp_epDesc,
    215                                 GENERICAPP_CLUSTERID,
    216                                 osal_strlen(uartbuf) + 1,
                                                    ^
Warning[Pe167]: argument of type "unsigned char *" is incompatible with
          parameter of type "char *"

  static void rxCB(uint8 port,uint8 event);
              ^
"C:\Texas Instruments\ZStack-CC2530-2.5.1a\Projects\zstack\Samples\GenericApp\Source\DHT110.c",85  Warning[Pe177]: 
          function "rxCB" was declared but never referenced
    217                                 uartbuf,
    218                                 &GenericApp_TransID,
    219                                 AF_DISCV_ROUTE, AF_DEFAULT_RADIUS );
   \   000032                ; Setup parameters for call to function AF_DataRequest
   \   000032   75..1E       MOV     ?V0 + 0,#0x1e
   \   000035   78..         MOV     R0,#?V0 + 0
   \   000037   12....       LCALL   ?PUSH_XSTACK_I_ONE
   \   00003A   75....       MOV     ?V0 + 0,#GenericApp_TransID & 0xff
   \   00003D   75....       MOV     ?V0 + 1,#(GenericApp_TransID >> 8) & 0xff
   \   000040   78..         MOV     R0,#?V0 + 0
   \   000042   12....       LCALL   ?PUSH_XSTACK_I_TWO
   \   000045   75....       MOV     ?V0 + 0,#uartbuf & 0xff
   \   000048   75....       MOV     ?V0 + 1,#(uartbuf >> 8) & 0xff
   \   00004B   78..         MOV     R0,#?V0 + 0
   \   00004D   12....       LCALL   ?PUSH_XSTACK_I_TWO
   \   000050                ; Setup parameters for call to function osal_strlen
   \   000050   7A..         MOV     R2,#uartbuf & 0xff
   \   000052   7B..         MOV     R3,#(uartbuf >> 8) & 0xff
   \   000054   12....       LCALL   ??osal_strlen?relay
   \   000057   EA           MOV     A,R2
   \   000058   2401         ADD     A,#0x1
   \   00005A   F5..         MOV     ?V0 + 0,A
   \   00005C   EB           MOV     A,R3
   \   00005D   3400         ADDC    A,#0x0
   \   00005F   F5..         MOV     ?V0 + 1,A
   \   000061   78..         MOV     R0,#?V0 + 0
   \   000063   12....       LCALL   ?PUSH_XSTACK_I_TWO
   \   000066   75..01       MOV     ?V0 + 0,#0x1
   \   000069   75..00       MOV     ?V0 + 1,#0x0
   \   00006C   78..         MOV     R0,#?V0 + 0
   \   00006E   12....       LCALL   ?PUSH_XSTACK_I_TWO
   \   000071   7920         MOV     R1,#0x20
   \   000073   7C..         MOV     R4,#GenericApp_epDesc & 0xff
   \   000075   7D..         MOV     R5,#(GenericApp_epDesc >> 8) & 0xff
   \   000077   7409         MOV     A,#0x9
   \   000079   12....       LCALL   ?XSTACK_DISP0_8
   \   00007C   AA82         MOV     R2,DPL
   \   00007E   AB83         MOV     R3,DPH
   \   000080   12....       LCALL   ??AF_DataRequest?relay
   \   000083   7409         MOV     A,#0x9
   \   000085   12....       LCALL   ?DEALLOC_XSTACK8
    220            
    221          
    222          }
   \   000088   740C         MOV     A,#0xc
   \   00008A   12....       LCALL   ?DEALLOC_XSTACK8
   \   00008D   7F02         MOV     R7,#0x2
   \   00008F   02....       LJMP    ?BANKED_LEAVE_XDATA

   \                                 In  segment BANK_RELAYS, align 1
   \                     ??GenericApp_Init?relay:
   \   000000   12....       LCALL   ?BDISPATCH
   \   000003   ......       DC24    GenericApp_Init

   \                                 In  segment BANK_RELAYS, align 1
   \                     ??GenericApp_ProcessEvent?relay:
   \   000000   12....       LCALL   ?BDISPATCH
   \   000003   ......       DC24    GenericApp_ProcessEvent

   \                                 In  segment BANK_RELAYS, align 1
   \                     ??GenericApp_MessageMSGCB?relay:
   \   000000   12....       LCALL   ?BDISPATCH
   \   000003   ......       DC24    GenericApp_MessageMSGCB

   \                                 In  segment BANK_RELAYS, align 1
   \                     ??GenericApp_SendTheMessage?relay:
   \   000000   12....       LCALL   ?BDISPATCH
   \   000003   ......       DC24    GenericApp_SendTheMessage

   Maximum stack usage in bytes:

     Function                     ISTACK PSTACK XSTACK
     --------                     ------ ------ ------
     GenericApp_Init                  0      0      9
       -> afRegister                  0      0     18
     GenericApp_MessageMSGCB          0      0     46
       -> osal_memcpy                 0      0     68
       -> HalUARTWrite                0      0     62
     GenericApp_ProcessEvent          0      0     12
       -> osal_msg_receive            0      0     24
       -> HalLedBlink                 0      0     24
       -> GenericApp_MessageMSGCB     0      0     24
       -> osal_msg_deallocate         0      0     24
       -> osal_msg_receive            0      0     24
     GenericApp_SendTheMessage        0      0     31
       -> HalLedBlink                 0      0     44
       -> osal_strlen                 0      0     54
       -> AF_DataRequest              0      0     62


   Segment part sizes:

     Function/Label                    Bytes
     --------------                    -----
     uartbuf                             10
     GenericApp_ClusterList               2
     GenericApp_SimpleDesc               12
     GenericApp_epDesc                    6
     GenericApp_TaskID                    1
     GenericApp_TransID                   1
     GenericApp_Init                     52
     GenericApp_ProcessEvent             90
     GenericApp_MessageMSGCB            102
     GenericApp_SendTheMessage          146
     ??GenericApp_Init?relay              6
     ??GenericApp_ProcessEvent?relay      6
     ??GenericApp_MessageMSGCB?relay      6
     ??GenericApp_SendTheMessage?relay    6

 
 390 bytes in segment BANKED_CODE
  24 bytes in segment BANK_RELAYS
  14 bytes in segment XDATA_ROM_C
  18 bytes in segment XDATA_Z
 
 414 bytes of CODE  memory
  14 bytes of CONST memory
  18 bytes of XDATA memory

Errors: none
Warnings: 3
