###############################################################################
#                                                                             #
# IAR C/C++ Compiler V8.10.1.10194/W32 for 8051         06/Jan/2019  13:44:29 #
# Copyright 2004-2011 IAR Systems AB.                                         #
#                                                                             #
#    Core               =  plain                                              #
#    Code model         =  banked                                             #
#    Data model         =  large                                              #
#    Calling convention =  xdata reentrant                                    #
#    Constant location  =  data_rom                                           #
#    Dptr setup         =  1,16                                               #
#    Source file        =  C:\Texas Instruments\ZStack-CC2530-2.5.1a\Projects #
#                          \zstack\Samples\GenericApp\Source\DD.c             #
#    Command line       =  -f "C:\Texas Instruments\ZStack-CC2530-2.5.1a\Proj #
#                          ects\zstack\Samples\GenericApp\CC2530DB\..\..\..\T #
#                          ools\CC2530DB\f8wEndev.cfg" (-DCPU32MHZ            #
#                          -DROOT=__near_func -DMAC_CFG_TX_DATA_MAX=3         #
#                          -DMAC_CFG_TX_MAX=6 -DMAC_CFG_RX_MAX=3) -f          #
#                          "C:\Texas Instruments\ZStack-CC2530-2.5.1a\Project #
#                          s\zstack\Samples\GenericApp\CC2530DB\..\..\..\Tool #
#                          s\CC2530DB\f8wConfig.cfg" (-DZIGBEEPRO -DSECURE=0  #
#                          -DZG_SECURE_DYNAMIC=0 -DREFLECTOR                  #
#                          -DDEFAULT_CHANLIST=0x00000800                      #
#                          -DZDAPP_CONFIG_PAN_ID=0xFFFF                       #
#                          -DNWK_START_DELAY=100 -DEXTENDED_JOINING_RANDOM_MA #
#                          SK=0x007F -DBEACON_REQUEST_DELAY=100               #
#                          -DBEACON_REQ_DELAY_MASK=0x00FF                     #
#                          -DLINK_STATUS_JITTER_MASK=0x007F                   #
#                          -DROUTE_EXPIRY_TIME=30 -DAPSC_ACK_WAIT_DURATION_PO #
#                          LLED=3000 -DNWK_INDIRECT_MSG_TIMEOUT=7             #
#                          -DMAX_RREQ_ENTRIES=8 -DAPSC_MAX_FRAME_RETRIES=3    #
#                          -DNWK_MAX_DATA_RETRIES=2                           #
#                          -DMAX_POLL_FAILURE_RETRIES=2 -DMAX_BCAST=9         #
#                          -DAPS_MAX_GROUPS=16 -DMAX_RTG_ENTRIES=40           #
#                          -DNWK_MAX_BINDING_ENTRIES=4                        #
#                          -DMAX_BINDING_CLUSTER_IDS=4 "-DDEFAULT_KEY={0x01,  #
#                          0x03, 0x05, 0x07, 0x09, 0x0B, 0x0D, 0x0F, 0x00,    #
#                          0x02, 0x04, 0x06, 0x08, 0x0A, 0x0C, 0x0D}"         #
#                          -DMAC_MAX_FRAME_SIZE=116                           #
#                          -DZDNWKMGR_MIN_TRANSMISSIONS=20 "-DCONST=const     #
#                          __code" -DGENERIC=__generic                        #
#                          -DRFD_RCVC_ALWAYS_ON=FALSE -DPOLL_RATE=1000        #
#                          -DQUEUED_POLL_RATE=100 -DRESPONSE_POLL_RATE=100)   #
#                          -DREJOIN_POLL_RATE=440 "C:\Texas                   #
#                          Instruments\ZStack-CC2530-2.5.1a\Projects\zstack\S #
#                          amples\GenericApp\Source\DD.c" -D NWK_AUTO_POLL    #
#                          -D ZTOOL_P1 -D MT_TASK -D MT_SYS_FUNC -D           #
#                          MT_ZDO_FUNC -D LCD_SUPPORTED=DEBUG -D              #
#                          xPOWER_SAVING -D HAL_UART=TRUE -lC "C:\Texas       #
#                          Instruments\ZStack-CC2530-2.5.1a\Projects\zstack\S #
#                          amples\GenericApp\CC2530DB\EndDeviceEB\List\" -lA  #
#                          "C:\Texas Instruments\ZStack-CC2530-2.5.1a\Project #
#                          s\zstack\Samples\GenericApp\CC2530DB\EndDeviceEB\L #
#                          ist\" --diag_suppress Pe001,Pa010 -o "C:\Texas     #
#                          Instruments\ZStack-CC2530-2.5.1a\Projects\zstack\S #
#                          amples\GenericApp\CC2530DB\EndDeviceEB\Obj\" -e    #
#                          --no_code_motion --debug --core=plain --dptr=16,1  #
#                          --data_model=large --code_model=banked             #
#                          --calling_convention=xdata_reentrant               #
#                          --place_constants=data_rom --nr_virtual_regs 16    #
#                          -I "C:\Texas Instruments\ZStack-CC2530-2.5.1a\Proj #
#                          ects\zstack\Samples\GenericApp\CC2530DB\" -I       #
#                          "C:\Texas Instruments\ZStack-CC2530-2.5.1a\Project #
#                          s\zstack\Samples\GenericApp\CC2530DB\..\Source\"   #
#                          -I "C:\Texas Instruments\ZStack-CC2530-2.5.1a\Proj #
#                          ects\zstack\Samples\GenericApp\CC2530DB\..\..\..\Z #
#                          Main\TI2530DB\" -I "C:\Texas                       #
#                          Instruments\ZStack-CC2530-2.5.1a\Projects\zstack\S #
#                          amples\GenericApp\CC2530DB\..\..\..\..\..\Componen #
#                          ts\hal\include\" -I "C:\Texas                      #
#                          Instruments\ZStack-CC2530-2.5.1a\Projects\zstack\S #
#                          amples\GenericApp\CC2530DB\..\..\..\..\..\Componen #
#                          ts\hal\target\CC2530EB\" -I "C:\Texas              #
#                          Instruments\ZStack-CC2530-2.5.1a\Projects\zstack\S #
#                          amples\GenericApp\CC2530DB\..\..\..\..\..\Componen #
#                          ts\mac\include\" -I "C:\Texas                      #
#                          Instruments\ZStack-CC2530-2.5.1a\Projects\zstack\S #
#                          amples\GenericApp\CC2530DB\..\..\..\..\..\Componen #
#                          ts\mac\high_level\" -I "C:\Texas                   #
#                          Instruments\ZStack-CC2530-2.5.1a\Projects\zstack\S #
#                          amples\GenericApp\CC2530DB\..\..\..\..\..\Componen #
#                          ts\mac\low_level\srf04\" -I "C:\Texas              #
#                          Instruments\ZStack-CC2530-2.5.1a\Projects\zstack\S #
#                          amples\GenericApp\CC2530DB\..\..\..\..\..\Componen #
#                          ts\mac\low_level\srf04\single_chip\" -I "C:\Texas  #
#                          Instruments\ZStack-CC2530-2.5.1a\Projects\zstack\S #
#                          amples\GenericApp\CC2530DB\..\..\..\..\..\Componen #
#                          ts\mt\" -I "C:\Texas Instruments\ZStack-CC2530-2.5 #
#                          .1a\Projects\zstack\Samples\GenericApp\CC2530DB\.. #
#                          \..\..\..\..\Components\osal\include\" -I          #
#                          "C:\Texas Instruments\ZStack-CC2530-2.5.1a\Project #
#                          s\zstack\Samples\GenericApp\CC2530DB\..\..\..\..\. #
#                          .\Components\services\saddr\" -I "C:\Texas         #
#                          Instruments\ZStack-CC2530-2.5.1a\Projects\zstack\S #
#                          amples\GenericApp\CC2530DB\..\..\..\..\..\Componen #
#                          ts\services\sdata\" -I "C:\Texas                   #
#                          Instruments\ZStack-CC2530-2.5.1a\Projects\zstack\S #
#                          amples\GenericApp\CC2530DB\..\..\..\..\..\Componen #
#                          ts\stack\af\" -I "C:\Texas                         #
#                          Instruments\ZStack-CC2530-2.5.1a\Projects\zstack\S #
#                          amples\GenericApp\CC2530DB\..\..\..\..\..\Componen #
#                          ts\stack\nwk\" -I "C:\Texas                        #
#                          Instruments\ZStack-CC2530-2.5.1a\Projects\zstack\S #
#                          amples\GenericApp\CC2530DB\..\..\..\..\..\Componen #
#                          ts\stack\sapi\" -I "C:\Texas                       #
#                          Instruments\ZStack-CC2530-2.5.1a\Projects\zstack\S #
#                          amples\GenericApp\CC2530DB\..\..\..\..\..\Componen #
#                          ts\stack\sec\" -I "C:\Texas                        #
#                          Instruments\ZStack-CC2530-2.5.1a\Projects\zstack\S #
#                          amples\GenericApp\CC2530DB\..\..\..\..\..\Componen #
#                          ts\stack\sys\" -I "C:\Texas                        #
#                          Instruments\ZStack-CC2530-2.5.1a\Projects\zstack\S #
#                          amples\GenericApp\CC2530DB\..\..\..\..\..\Componen #
#                          ts\stack\zdo\" -I "C:\Texas                        #
#                          Instruments\ZStack-CC2530-2.5.1a\Projects\zstack\S #
#                          amples\GenericApp\CC2530DB\..\..\..\..\..\Componen #
#                          ts\zmac\" -I "C:\Texas Instruments\ZStack-CC2530-2 #
#                          .5.1a\Projects\zstack\Samples\GenericApp\CC2530DB\ #
#                          ..\..\..\..\..\Components\zmac\f8w\" -Ohz          #
#    List file          =  C:\Texas Instruments\ZStack-CC2530-2.5.1a\Projects #
#                          \zstack\Samples\GenericApp\CC2530DB\EndDeviceEB\Li #
#                          st\DD.lst                                          #
#    Object file        =  C:\Texas Instruments\ZStack-CC2530-2.5.1a\Projects #
#                          \zstack\Samples\GenericApp\CC2530DB\EndDeviceEB\Ob #
#                          j\DD.r51                                           #
#                                                                             #
#                                                                             #
###############################################################################

C:\Texas Instruments\ZStack-CC2530-2.5.1a\Projects\zstack\Samples\GenericApp\Source\DD.c
      1          #include <stdio.h>
      2          #include "OSAL.h"
      3          #include "AF.h"
      4          #include "ZDApp.h"
      5          #include "ZDObject.h"
      6          #include "ZDProfile.h"
      7          #include <string.h>
      8          #include <ioCC2530.h>

   \                                 In  segment SFR_AN, at 0x80
   \   union <unnamed> volatile __sfr _A_P0
   \                     _A_P0:
   \   000000                DS 1

   \                                 In  segment SFR_AN, at 0x90
   \   union <unnamed> volatile __sfr _A_P1
   \                     _A_P1:
   \   000000                DS 1

   \                                 In  segment SFR_AN, at 0xfd
   \   unsigned char volatile __sfr P0DIR
   \                     P0DIR:
   \   000000                DS 1
      9          //#include "GenericApp.h"   
     10          #include "DebugTrace.h"
     11          
     12          #include "DH.h" 
     13          
     14          #if !defined( WIN32 )
     15            #include "OnBoard.h"
     16          #endif
     17          
     18          /* HAL */
     19          #include "hal_lcd.h"
     20          #include "hal_led.h"
     21          #include "hal_key.h"
     22          #include "hal_uart.h"
     23          
     24          #define SEND_DATA_EVENT 0x01
     25          
     26          #define DATA_PIN P0_7
     27          
     28          void Delay_us(void); //1 us延时
     29          void Delay_10us(void); //10 us延时
     30          
     31          void COM(void); // 温湿写入
     32          void DHT11(void) ;  //温湿传感启动
     33          
     34          
     35          #define uchar unsigned char
     36          #define uint unsigned int
     37          
     38          
     39          
     40          //温湿度定义

   \                                 In  segment XDATA_Z, align 1, keep-with-next
     41          uchar shidu_shi,shidu_ge,wendu_shi,wendu_ge;
   \                     shidu_shi:
   \   000000                DS 1
   \   000001                REQUIRE __INIT_XDATA_Z

   \                                 In  segment XDATA_Z, align 1, keep-with-next
   \                     shidu_ge:
   \   000000                DS 1
   \   000001                REQUIRE __INIT_XDATA_Z

   \                                 In  segment XDATA_Z, align 1, keep-with-next
   \                     wendu_shi:
   \   000000                DS 1
   \   000001                REQUIRE __INIT_XDATA_Z

   \                                 In  segment XDATA_Z, align 1, keep-with-next
   \                     wendu_ge:
   \   000000                DS 1
   \   000001                REQUIRE __INIT_XDATA_Z

   \                                 In  segment XDATA_Z, align 1, keep-with-next
     42          uchar ucharFLAG,uchartemp;
   \                     ucharFLAG:
   \   000000                DS 1
   \   000001                REQUIRE __INIT_XDATA_Z

   \                                 In  segment XDATA_Z, align 1, keep-with-next
   \                     uchartemp:
   \   000000                DS 1
   \   000001                REQUIRE __INIT_XDATA_Z
     43          

   \                                 In  segment XDATA_Z, align 1, keep-with-next
     44          uchar ucharT_data_H,ucharT_data_L,ucharRH_data_H,ucharRH_data_L,ucharcheckdata;
   \                     ucharT_data_H:
   \   000000                DS 1
   \   000001                REQUIRE __INIT_XDATA_Z

   \                                 In  segment XDATA_Z, align 1, keep-with-next
   \                     ucharT_data_L:
   \   000000                DS 1
   \   000001                REQUIRE __INIT_XDATA_Z

   \                                 In  segment XDATA_Z, align 1, keep-with-next
   \                     ucharRH_data_H:
   \   000000                DS 1
   \   000001                REQUIRE __INIT_XDATA_Z

   \                                 In  segment XDATA_Z, align 1, keep-with-next
   \                     ucharRH_data_L:
   \   000000                DS 1
   \   000001                REQUIRE __INIT_XDATA_Z

   \                                 In  segment XDATA_Z, align 1, keep-with-next
   \                     ucharcheckdata:
   \   000000                DS 1
   \   000001                REQUIRE __INIT_XDATA_Z

   \                                 In  segment XDATA_Z, align 1, keep-with-next
     45          uchar ucharT_data_H_temp,ucharT_data_L_temp,ucharRH_data_H_temp,ucharRH_data_L_temp,ucharcheckdata_temp;
   \                     ucharT_data_H_temp:
   \   000000                DS 1
   \   000001                REQUIRE __INIT_XDATA_Z

   \                                 In  segment XDATA_Z, align 1, keep-with-next
   \                     ucharT_data_L_temp:
   \   000000                DS 1
   \   000001                REQUIRE __INIT_XDATA_Z

   \                                 In  segment XDATA_Z, align 1, keep-with-next
   \                     ucharRH_data_H_temp:
   \   000000                DS 1
   \   000001                REQUIRE __INIT_XDATA_Z

   \                                 In  segment XDATA_Z, align 1, keep-with-next
   \                     ucharRH_data_L_temp:
   \   000000                DS 1
   \   000001                REQUIRE __INIT_XDATA_Z

   \                                 In  segment XDATA_Z, align 1, keep-with-next
   \                     ucharcheckdata_temp:
   \   000000                DS 1
   \   000001                REQUIRE __INIT_XDATA_Z

   \                                 In  segment XDATA_Z, align 1, keep-with-next
     46          uchar ucharcomdata;
   \                     ucharcomdata:
   \   000000                DS 1
   \   000001                REQUIRE __INIT_XDATA_Z
     47          //--------------------------------
     48          //-----湿度读取子程序 ------------
     49          //--------------------------------
     50          //----以下变量均为全局变量--------
     51          //----温度高8位== U8T_data_H------
     52          //----温度低8位== U8T_data_L------
     53          //----湿度高8位== U8RH_data_H-----
     54          //----湿度低8位== U8RH_data_L-----
     55          //----校验 8位 == U8checkdata-----
     56          //----调用相关子程序如下----------
     57          //---- Delay();, Delay_10us();,COM(); 
     58          //--------------------------------
     59          
     60          //延时函数

   \                                 In  segment BANKED_CODE, align 1, keep-with-next
     61          void Delay_us() //1 us延时
   \                     Delay_us:
     62          {
   \   000000   C082         PUSH    DPL
   \   000002   C083         PUSH    DPH
   \   000004                ; Saved register size: 2
   \   000004                ; Auto size: 0
     63          
     64              MicroWait(1); 
   \   000004                ; Setup parameters for call to function Onboard_wait
   \   000004   7A01         MOV     R2,#0x1
   \   000006   02....       LJMP    ?Subroutine0 & 0xFFFF
     65          
     66          }

   \                                 In  segment BANKED_CODE, align 1, keep-with-next
   \                     ?Subroutine0:
   \   000000   7B00         MOV     R3,#0x0
   \   000002   12....       LCALL   ??Onboard_wait?relay
   \   000005                REQUIRE ??Subroutine7_0
   \   000005                ; // Fall through to label ??Subroutine7_0

   \                                 In  segment BANKED_CODE, align 1, keep-with-next
   \                     ??Subroutine7_0:
   \   000000   D083         POP     DPH
   \   000002   D082         POP     DPL
   \   000004   02....       LJMP    ?BRET

   \                                 In  segment BANKED_CODE, align 1, keep-with-next
     67          void Delay_10us() //10 us延时
   \                     Delay_10us:
     68          {  
   \   000000   C082         PUSH    DPL
   \   000002   C083         PUSH    DPH
   \   000004                ; Saved register size: 2
   \   000004                ; Auto size: 0
     69            MicroWait(10);
   \   000004                ; Setup parameters for call to function Onboard_wait
   \   000004   7A0A         MOV     R2,#0xa
   \   000006   02....       LJMP    ?Subroutine0 & 0xFFFF
     70          }
     71          

   \                                 In  segment BANKED_CODE, align 1, keep-with-next
     72          void Delay_ms(uint Time)//n ms延时
   \                     Delay_ms:
     73          {
   \   000000   74F7         MOV     A,#-0x9
   \   000002   12....       LCALL   ?BANKED_ENTER_XDATA
   \   000005                ; Saved register size: 9
   \   000005                ; Auto size: 0
   \   000005   EA           MOV     A,R2
   \   000006   FE           MOV     R6,A
   \   000007   EB           MOV     A,R3
   \   000008   FF           MOV     R7,A
     74              unsigned char i;
     75              while(Time--)
   \                     ??Delay_ms_0:
   \   000009   EE           MOV     A,R6
   \   00000A   F8           MOV     R0,A
   \   00000B   EF           MOV     A,R7
   \   00000C   F9           MOV     R1,A
   \   00000D   E8           MOV     A,R0
   \   00000E   24FF         ADD     A,#-0x1
   \   000010   1E           DEC     R6
   \   000011   E9           MOV     A,R1
   \   000012   34FF         ADDC    A,#-0x1
   \   000014   FF           MOV     R7,A
   \   000015   E8           MOV     A,R0
   \   000016   49           ORL     A,R1
   \   000017   6012         JZ      ??Delay_ms_1
     76              {
     77                  for(i=0;i<100;i++)
   \   000019   75..64       MOV     ?V0 + 0,#0x64
     78                      Delay_10us();
   \                     ??Delay_ms_2:
   \   00001C                ; Setup parameters for call to function Onboard_wait
   \   00001C   7A0A         MOV     R2,#0xa
   \   00001E   7B00         MOV     R3,#0x0
   \   000020   12....       LCALL   ??Onboard_wait?relay
   \   000023   15..         DEC     ?V0 + 0
   \   000025   E5..         MOV     A,?V0 + 0
   \   000027   60E0         JZ      ??Delay_ms_0
   \   000029   80F1         SJMP    ??Delay_ms_2
     79              }
     80          }
   \                     ??Delay_ms_1:
   \   00002B                REQUIRE ?Subroutine1
   \   00002B                ; // Fall through to label ?Subroutine1

   \                                 In  segment BANKED_CODE, align 1, keep-with-next
   \                     ?Subroutine1:
   \   000000   7F01         MOV     R7,#0x1
   \   000002   02....       LJMP    ?BANKED_LEAVE_XDATA
     81          
     82          //温湿度传感

   \                                 In  segment BANKED_CODE, align 1, keep-with-next
     83          void COM(void)    // 温湿写入
   \                     COM:
     84          {     
   \   000000   74F7         MOV     A,#-0x9
   \   000002   12....       LCALL   ?BANKED_ENTER_XDATA
   \   000005                ; Saved register size: 9
   \   000005                ; Auto size: 0
     85              uchar i;         
     86              for(i=0;i<8;i++)    
   \   000005   7E08         MOV     R6,#0x8
     87              {
     88                  ucharFLAG=2; 
   \                     ??COM_0:
   \   000007   90....       MOV     DPTR,#ucharFLAG
   \   00000A   7402         MOV     A,#0x2
   \   00000C   F0           MOVX    @DPTR,A
     89                  while((!DATA_PIN)&&ucharFLAG++);
   \                     ??COM_1:
   \   00000D   A287         MOV     C,0x80.7
   \   00000F   4005         JC      ??COM_2
   \   000011   12....       LCALL   ?Subroutine4 & 0xFFFF
   \                     ??CrossCallReturnLabel_6:
   \   000014   70F7         JNZ     ??COM_1
     90                  Delay_10us();
   \                     ??COM_2:
   \   000016                ; Setup parameters for call to function Onboard_wait
   \   000016   12....       LCALL   ?Subroutine2 & 0xFFFF
     91                  Delay_10us();
     92                  Delay_10us();
     93                  uchartemp=0;
   \                     ??CrossCallReturnLabel_0:
   \   000019   90....       MOV     DPTR,#uchartemp
   \   00001C   E4           CLR     A
   \   00001D   F0           MOVX    @DPTR,A
     94                  if(DATA_PIN)uchartemp=1;//如果超过30us还没置0，则数据为1，置0，则数据为0
   \   00001E   A287         MOV     C,0x80.7
   \   000020   5002         JNC     ??COM_3
   \   000022   04           INC     A
   \   000023   F0           MOVX    @DPTR,A
     95                  ucharFLAG=2;
   \                     ??COM_3:
   \   000024   90....       MOV     DPTR,#ucharFLAG
   \   000027   7402         MOV     A,#0x2
   \   000029   F0           MOVX    @DPTR,A
     96                  while((DATA_PIN)&&ucharFLAG++); //等待置0  
   \                     ??COM_4:
   \   00002A   A287         MOV     C,0x80.7
   \   00002C   5005         JNC     ??COM_5
   \   00002E   12....       LCALL   ?Subroutine4 & 0xFFFF
   \                     ??CrossCallReturnLabel_7:
   \   000031   70F7         JNZ     ??COM_4
     97                  if(ucharFLAG==1)break;    
   \                     ??COM_5:
   \   000033   E0           MOVX    A,@DPTR
   \   000034   6401         XRL     A,#0x1
   \   000036   601B         JZ      ??COM_6
     98                  ucharcomdata<<=1;//ucharcomdata左移一位赋值给ucharcomdata
     99                  ucharcomdata|=uchartemp;//两句合起来就是给最高位赋值
   \   000038   90....       MOV     DPTR,#uchartemp
   \   00003B   C082         PUSH    DPL
   \   00003D   90....       MOV     DPTR,#ucharcomdata
   \   000040   E0           MOVX    A,@DPTR
   \   000041   C3           CLR     C
   \   000042   33           RLC     A
   \   000043   7583..       MOV     DPH,#(uchartemp >> 8) & 0xff
   \   000046   D082         POP     DPL
   \   000048   F8           MOV     R0,A
   \   000049   E0           MOVX    A,@DPTR
   \   00004A   48           ORL     A,R0
   \   00004B   90....       MOV     DPTR,#ucharcomdata
   \   00004E   F0           MOVX    @DPTR,A
    100              }    
   \   00004F   1E           DEC     R6
   \   000050   EE           MOV     A,R6
   \   000051   70B4         JNZ     ??COM_0
    101          }
   \                     ??COM_6:
   \   000053   80..         SJMP    ?Subroutine1
   \   000055                REQUIRE _A_P0

   \                                 In  segment BANKED_CODE, align 1, keep-with-next
   \                     ?Subroutine4:
   \   000000   E0           MOVX    A,@DPTR
   \   000001   F8           MOV     R0,A
   \   000002   7401         MOV     A,#0x1
   \   000004   28           ADD     A,R0
   \   000005   F0           MOVX    @DPTR,A
   \   000006   E8           MOV     A,R0
   \   000007   22           RET

   \                                 In  segment BANKED_CODE, align 1, keep-with-next
   \                     ?Subroutine2:
   \   000000   7A0A         MOV     R2,#0xa
   \   000002   7B00         MOV     R3,#0x0
   \   000004   12....       LCALL   ??Onboard_wait?relay
   \   000007                ; Setup parameters for call to function Onboard_wait
   \   000007                ; Setup parameters for call to function Onboard_wait
   \   000007   7A0A         MOV     R2,#0xa
   \   000009   7B00         MOV     R3,#0x0
   \   00000B   12....       LCALL   ??Onboard_wait?relay
   \   00000E                ; Setup parameters for call to function Onboard_wait
   \   00000E                ; Setup parameters for call to function Onboard_wait
   \   00000E   7A0A         MOV     R2,#0xa
   \   000010   7B00         MOV     R3,#0x0
   \   000012   12....       LCALL   ??Onboard_wait?relay
   \   000015   22           RET
    102          

   \                                 In  segment BANKED_CODE, align 1, keep-with-next
    103          void DHT11(void)   //温湿传感启动
   \                     DHT11:
    104          {
   \   000000   C082         PUSH    DPL
   \   000002   C083         PUSH    DPH
   \   000004                ; Saved register size: 2
   \   000004                ; Auto size: 0
    105              DATA_PIN=0;//置低电平
   \   000004   C287         CLR     0x80.7
    106              Delay_ms(19);  //>18MS
   \   000006                ; Setup parameters for call to function Delay_ms
   \   000006   7A13         MOV     R2,#0x13
   \   000008   7B00         MOV     R3,#0x0
   \   00000A   12....       LCALL   ??Delay_ms?relay
    107              DATA_PIN=1; //置高电平，开始信号发送结束
   \   00000D   D287         SETB    0x80.7
    108              P0DIR &= ~0x80; //重新配置IO口方向，输入
   \   00000F   53FD7F       ANL     0xfd,#0x7f
    109              Delay_10us();
   \   000012                ; Setup parameters for call to function Onboard_wait
   \   000012   12....       LCALL   ?Subroutine2 & 0xFFFF
    110              Delay_10us();                        
    111              Delay_10us();
    112              Delay_10us();  //高电平，延时40us等待
   \                     ??CrossCallReturnLabel_1:
   \   000015                ; Setup parameters for call to function Onboard_wait
   \   000015   7A0A         MOV     R2,#0xa
   \   000017   7B00         MOV     R3,#0x0
   \   000019   12....       LCALL   ??Onboard_wait?relay
    113              if(!DATA_PIN) //如果电平变低，则证明检测到开始信号
   \   00001C   A287         MOV     C,0x80.7
   \   00001E   5003         JNC     $+5
   \   000020   02....       LJMP    ??DHT11_0 & 0xFFFF
    114              {
    115                  ucharFLAG=2; 
   \   000023   90....       MOV     DPTR,#ucharFLAG
   \   000026   7402         MOV     A,#0x2
   \   000028   F0           MOVX    @DPTR,A
    116                  while((!DATA_PIN)&&ucharFLAG++);//低电平，等待响应结束
   \                     ??DHT11_1:
   \   000029   A287         MOV     C,0x80.7
   \   00002B   4005         JC      ??DHT11_2
   \   00002D   12....       LCALL   ?Subroutine4 & 0xFFFF
   \                     ??CrossCallReturnLabel_8:
   \   000030   70F7         JNZ     ??DHT11_1
    117                  ucharFLAG=2;
   \                     ??DHT11_2:
   \   000032   7402         MOV     A,#0x2
   \   000034   F0           MOVX    @DPTR,A
    118                  while((DATA_PIN)&&ucharFLAG++); //高电平，准备输出
   \                     ??DHT11_3:
   \   000035   A287         MOV     C,0x80.7
   \   000037   5005         JNC     ??DHT11_4
   \   000039   12....       LCALL   ?Subroutine4 & 0xFFFF
   \                     ??CrossCallReturnLabel_9:
   \   00003C   70F7         JNZ     ??DHT11_3
    119                  COM();
   \                     ??DHT11_4:
   \   00003E                ; Setup parameters for call to function COM
   \   00003E   12....       LCALL   ??COM?relay
    120                  ucharRH_data_H_temp=ucharcomdata;//湿度高八位
   \   000041   90....       MOV     DPTR,#ucharcomdata
   \   000044   E0           MOVX    A,@DPTR
   \   000045   90....       MOV     DPTR,#ucharRH_data_H_temp
   \   000048   12....       LCALL   ?Subroutine3 & 0xFFFF
    121                  COM();
    122                  ucharRH_data_L_temp=ucharcomdata;//湿度低八位
   \                     ??CrossCallReturnLabel_2:
   \   00004B   90....       MOV     DPTR,#ucharRH_data_L_temp
   \   00004E   12....       LCALL   ?Subroutine3 & 0xFFFF
    123                  COM();
    124                  ucharT_data_H_temp=ucharcomdata;//温度高八位
   \                     ??CrossCallReturnLabel_3:
   \   000051   90....       MOV     DPTR,#ucharT_data_H_temp
   \   000054   12....       LCALL   ?Subroutine3 & 0xFFFF
    125                  COM();
    126                  ucharT_data_L_temp=ucharcomdata;//温度低八位
   \                     ??CrossCallReturnLabel_4:
   \   000057   90....       MOV     DPTR,#ucharT_data_L_temp
   \   00005A   12....       LCALL   ?Subroutine3 & 0xFFFF
    127                  COM();
    128                  ucharcheckdata_temp=ucharcomdata;//校验八位
   \                     ??CrossCallReturnLabel_5:
   \   00005D   90....       MOV     DPTR,#ucharcheckdata_temp
   \   000060   F0           MOVX    @DPTR,A
    129                  DATA_PIN=1; //置高，空闲状态
   \   000061   D287         SETB    0x80.7
    130                  uchartemp=(ucharT_data_H_temp+ucharT_data_L_temp+ucharRH_data_H_temp+ucharRH_data_L_temp);
   \   000063   90....       MOV     DPTR,#ucharRH_data_L_temp
   \   000066   C082         PUSH    DPL
   \   000068   C083         PUSH    DPH
   \   00006A   90....       MOV     DPTR,#ucharRH_data_H_temp
   \   00006D   C082         PUSH    DPL
   \   00006F   C083         PUSH    DPH
   \   000071   90....       MOV     DPTR,#ucharT_data_L_temp
   \   000074   C082         PUSH    DPL
   \   000076   90....       MOV     DPTR,#ucharT_data_H_temp
   \   000079   E0           MOVX    A,@DPTR
   \   00007A   7583..       MOV     DPH,#(ucharT_data_L_temp >> 8) & 0xff
   \   00007D   D082         POP     DPL
   \   00007F   F8           MOV     R0,A
   \   000080   E0           MOVX    A,@DPTR
   \   000081   28           ADD     A,R0
   \   000082   D083         POP     DPH
   \   000084   D082         POP     DPL
   \   000086   F8           MOV     R0,A
   \   000087   E0           MOVX    A,@DPTR
   \   000088   28           ADD     A,R0
   \   000089   D083         POP     DPH
   \   00008B   D082         POP     DPL
   \   00008D   F8           MOV     R0,A
   \   00008E   E0           MOVX    A,@DPTR
   \   00008F   28           ADD     A,R0
   \   000090   90....       MOV     DPTR,#uchartemp
   \   000093   F0           MOVX    @DPTR,A
    131                  if(uchartemp==ucharcheckdata_temp)//校验
   \   000094   F8           MOV     R0,A
   \   000095   90....       MOV     DPTR,#ucharcheckdata_temp
   \   000098   E0           MOVX    A,@DPTR
   \   000099   68           XRL     A,R0
   \   00009A   7028         JNZ     ??DHT11_5
    132                  {
    133                      ucharRH_data_H=ucharRH_data_H_temp;
   \   00009C   90....       MOV     DPTR,#ucharRH_data_H_temp
   \   00009F   E0           MOVX    A,@DPTR
   \   0000A0   90....       MOV     DPTR,#ucharRH_data_H
   \   0000A3   F0           MOVX    @DPTR,A
    134                      ucharRH_data_L=ucharRH_data_L_temp;
   \   0000A4   90....       MOV     DPTR,#ucharRH_data_L_temp
   \   0000A7   E0           MOVX    A,@DPTR
   \   0000A8   90....       MOV     DPTR,#ucharRH_data_L
   \   0000AB   F0           MOVX    @DPTR,A
    135                      ucharT_data_H=ucharT_data_H_temp;
   \   0000AC   90....       MOV     DPTR,#ucharT_data_H_temp
   \   0000AF   E0           MOVX    A,@DPTR
   \   0000B0   90....       MOV     DPTR,#ucharT_data_H
   \   0000B3   F0           MOVX    @DPTR,A
    136                      ucharT_data_L=ucharT_data_L_temp;
   \   0000B4   90....       MOV     DPTR,#ucharT_data_L_temp
   \   0000B7   E0           MOVX    A,@DPTR
   \   0000B8   90....       MOV     DPTR,#ucharT_data_L
   \   0000BB   F0           MOVX    @DPTR,A
    137                      ucharcheckdata=ucharcheckdata_temp;
   \   0000BC   90....       MOV     DPTR,#ucharcheckdata_temp
   \   0000BF   E0           MOVX    A,@DPTR
   \   0000C0   90....       MOV     DPTR,#ucharcheckdata
   \   0000C3   F0           MOVX    @DPTR,A
    138                  }
    139                  wendu_shi=ucharT_data_H/10; 
   \                     ??DHT11_5:
   \   0000C4   75F00A       MOV     B,#0xa
   \   0000C7   90....       MOV     DPTR,#ucharT_data_H
   \   0000CA   E0           MOVX    A,@DPTR
   \   0000CB   84           DIV     AB
   \   0000CC   90....       MOV     DPTR,#wendu_shi
   \   0000CF   F0           MOVX    @DPTR,A
    140                  wendu_ge=ucharT_data_H%10;
   \   0000D0   90....       MOV     DPTR,#ucharT_data_H
   \   0000D3   12....       LCALL   ?Subroutine6 & 0xFFFF
   \                     ??CrossCallReturnLabel_12:
   \   0000D6   90....       MOV     DPTR,#wendu_ge
   \   0000D9   F0           MOVX    @DPTR,A
    141                  
    142                  shidu_shi=ucharRH_data_H/10; 
   \   0000DA   75F00A       MOV     B,#0xa
   \   0000DD   90....       MOV     DPTR,#ucharRH_data_H
   \   0000E0   E0           MOVX    A,@DPTR
   \   0000E1   84           DIV     AB
   \   0000E2   90....       MOV     DPTR,#shidu_shi
   \   0000E5   F0           MOVX    @DPTR,A
    143                  shidu_ge=ucharRH_data_H%10;        
   \   0000E6   90....       MOV     DPTR,#ucharRH_data_H
   \   0000E9   12....       LCALL   ?Subroutine6 & 0xFFFF
    144              } 
   \                     ??CrossCallReturnLabel_13:
   \   0000EC   800D         SJMP    ??DHT11_6
    145              else //没用成功读取，返回0
    146              {
    147                  wendu_shi=0; 
   \                     ??DHT11_0:
   \   0000EE   90....       MOV     DPTR,#wendu_shi
   \   0000F1   E4           CLR     A
   \   0000F2   F0           MOVX    @DPTR,A
    148                  wendu_ge=0;
   \   0000F3   90....       MOV     DPTR,#wendu_ge
   \   0000F6   F0           MOVX    @DPTR,A
    149                  
    150                  shidu_shi=0; 
   \   0000F7   90....       MOV     DPTR,#shidu_shi
   \   0000FA   F0           MOVX    @DPTR,A
    151                  shidu_ge=0;  
   \                     ??DHT11_6:
   \   0000FB   90....       MOV     DPTR,#shidu_ge
   \   0000FE   F0           MOVX    @DPTR,A
    152              } 
    153              
    154              P0DIR |= 0x80; //IO口需要重新配置 
   \   0000FF   43FD80       ORL     0xfd,#0x80
    155          }
   \   000102   80..         SJMP    ??Subroutine7_0
   \   000104                REQUIRE _A_P0
   \   000104                REQUIRE P0DIR

   \                                 In  segment BANKED_CODE, align 1, keep-with-next
   \                     ?Subroutine3:
   \   000000   F0           MOVX    @DPTR,A
   \   000001                ; Setup parameters for call to function COM
   \   000001                ; Setup parameters for call to function COM
   \   000001                ; Setup parameters for call to function COM
   \   000001                ; Setup parameters for call to function COM
   \   000001   12....       LCALL   ??COM?relay
   \   000004   90....       MOV     DPTR,#ucharcomdata
   \   000007   E0           MOVX    A,@DPTR
   \   000008   22           RET

   \                                 In  segment BANKED_CODE, align 1, keep-with-next
   \                     ?Subroutine6:
   \   000000   E0           MOVX    A,@DPTR
   \   000001   75F00A       MOV     B,#0xa
   \   000004   84           DIV     AB
   \   000005   E5F0         MOV     A,B
   \   000007   22           RET
    156          
    157          // This list should be filled with Application specific Cluster IDs.

   \                                 In  segment XDATA_ROM_C, align 1
    158          const cId_t GenericApp_ClusterList[GENERICAPP_MAX_CLUSTERS] =
   \                     GenericApp_ClusterList:
   \   000000   0100         DW 1
    159          {
    160            GENERICAPP_CLUSTERID
    161          };
    162          

   \                                 In  segment XDATA_ROM_C, align 1
    163          const SimpleDescriptionFormat_t GenericApp_SimpleDesc =
   \                     GenericApp_SimpleDesc:
   \   000000   0A           DB 10
   \   000001   040F         DW 3844
   \   000003   0100         DW 1
   \   000005   00           DB 0
   \   000006   00           DB 0
   \   000007   0000         DW 0H
   \   000009   01           DB 1
   \   00000A   ....         DW GenericApp_ClusterList
    164          {
    165            GENERICAPP_ENDPOINT,              //  int Endpoint;
    166            GENERICAPP_PROFID,                //  uint16 AppProfId[2];
    167            GENERICAPP_DEVICEID,              //  uint16 AppDeviceId[2];
    168            GENERICAPP_DEVICE_VERSION,        //  int   AppDevVer:4;
    169            GENERICAPP_FLAGS,                 //  int   AppFlags:4;
    170              0,
    171            (cId_t *)NULL,   //  改 byte *pAppInClusterList;
    172            GENERICAPP_MAX_CLUSTERS,          //  byte  AppNumInClusters;//输入簇ID的个数 
    173            (cId_t *)GenericApp_ClusterList,  //  byte *pAppInClusterList;
    174          
    175          };
    176          
    177          // This is the Endpoint/Interface description.  It is defined here, but
    178          // filled-in in GenericApp_Init().  Another way to go would be to fill
    179          // in the structure here and make it a "const" (in code space).  The
    180          // way it's defined in this sample app it is define in RAM.

   \                                 In  segment XDATA_Z, align 1, keep-with-next
    181          endPointDesc_t GenericApp_epDesc;
   \                     GenericApp_epDesc:
   \   000000                DS 6
   \   000006                REQUIRE __INIT_XDATA_Z

   \                                 In  segment XDATA_Z, align 1, keep-with-next
    182          byte GenericApp_TaskID;   
   \                     GenericApp_TaskID:
   \   000000                DS 1
   \   000001                REQUIRE __INIT_XDATA_Z

   \                                 In  segment XDATA_Z, align 1, keep-with-next
    183          byte GenericApp_TransID;  // This is the unique message ID (counter)
   \                     GenericApp_TransID:
   \   000000                DS 1
   \   000001                REQUIRE __INIT_XDATA_Z
    184          

   \                                 In  segment XDATA_Z, align 1, keep-with-next
    185          devStates_t GenericApp_NwkState;//用于保存节点状态信息
   \                     GenericApp_NwkState:
   \   000000                DS 1
   \   000001                REQUIRE __INIT_XDATA_Z
    186          
    187          void GenericApp_MessageMSGCB( afIncomingMSGPacket_t *pckt );//消息处理函数
    188          void GenericApp_SendTheMessage( void );
    189          

   \                                 In  segment BANKED_CODE, align 1, keep-with-next
    190          void GenericApp_Init( byte task_id )
   \                     GenericApp_Init:
    191          {
   \   000000   C082         PUSH    DPL
   \   000002   C083         PUSH    DPH
   \   000004                ; Saved register size: 2
   \   000004                ; Auto size: 0
    192             
    193                  P1_0=0;
   \   000004   C290         CLR     0x90.0
    194                  P1_1=0;
   \   000006   C291         CLR     0x90.1
    195            
    196            GenericApp_TaskID = task_id;
   \   000008   E9           MOV     A,R1
   \   000009   90....       MOV     DPTR,#GenericApp_TaskID
   \   00000C   F0           MOVX    @DPTR,A
    197            GenericApp_NwkState = DEV_INIT;//节点状态初始化为DEV_INIT，表示未连接到zigbee上
   \   00000D   90....       MOV     DPTR,#GenericApp_NwkState
   \   000010   7401         MOV     A,#0x1
   \   000012   F0           MOVX    @DPTR,A
    198            GenericApp_TransID = 0;
   \   000013   90....       MOV     DPTR,#GenericApp_TransID
   \   000016   E4           CLR     A
   \   000017   F0           MOVX    @DPTR,A
    199           
    200            GenericApp_epDesc.endPoint = GENERICAPP_ENDPOINT;
   \   000018   90....       MOV     DPTR,#GenericApp_epDesc
   \   00001B   740A         MOV     A,#0xa
   \   00001D   F0           MOVX    @DPTR,A
    201            GenericApp_epDesc.task_id = &GenericApp_TaskID;
   \   00001E   A3           INC     DPTR
   \   00001F   74..         MOV     A,#GenericApp_TaskID & 0xff
   \   000021   F0           MOVX    @DPTR,A
   \   000022   A3           INC     DPTR
   \   000023   74..         MOV     A,#(GenericApp_TaskID >> 8) & 0xff
   \   000025   F0           MOVX    @DPTR,A
    202            GenericApp_epDesc.simpleDesc
    203                      = (SimpleDescriptionFormat_t *)&GenericApp_SimpleDesc;
   \   000026   A3           INC     DPTR
   \   000027   74..         MOV     A,#GenericApp_SimpleDesc & 0xff
   \   000029   F0           MOVX    @DPTR,A
   \   00002A   A3           INC     DPTR
   \   00002B   74..         MOV     A,#(GenericApp_SimpleDesc >> 8) & 0xff
   \   00002D   F0           MOVX    @DPTR,A
    204            GenericApp_epDesc.latencyReq = noLatencyReqs;
   \   00002E   A3           INC     DPTR
   \   00002F   E4           CLR     A
   \   000030   F0           MOVX    @DPTR,A
    205          
    206          }
   \   000031   80..         SJMP    ??Subroutine7_0
   \   000033                REQUIRE _A_P1
    207          
    208          

   \                                 In  segment BANKED_CODE, align 1, keep-with-next
    209          UINT16 GenericApp_ProcessEvent( byte task_id, UINT16 events )
   \                     GenericApp_ProcessEvent:
    210          {
   \   000000   74F4         MOV     A,#-0xc
   \   000002   12....       LCALL   ?BANKED_ENTER_XDATA
   \   000005                ; Saved register size: 12
   \   000005                ; Auto size: 0
   \   000005   8A..         MOV     ?V0 + 0,R2
   \   000007   8B..         MOV     ?V0 + 1,R3
    211            afIncomingMSGPacket_t *MSGpkt;
    212            
    213          
    214            if ( events & SYS_EVENT_MSG )
   \   000009   EB           MOV     A,R3
   \   00000A   5480         ANL     A,#0x80
   \   00000C   6057         JZ      ??GenericApp_ProcessEvent_0
    215            {
    216              MSGpkt = (afIncomingMSGPacket_t *)osal_msg_receive( GenericApp_TaskID );
   \   00000E                ; Setup parameters for call to function osal_msg_receive
   \   00000E   8038         SJMP    ??GenericApp_ProcessEvent_1
    217              //读取节点的设备类型
    218              while ( MSGpkt )
    219              {
    220                switch ( MSGpkt->hdr.event )
   \                     ??GenericApp_ProcessEvent_2:
   \   000010   8E82         MOV     DPL,R6
   \   000012   8F83         MOV     DPH,R7
   \   000014   E0           MOVX    A,@DPTR
   \   000015   24E6         ADD     A,#-0x1a
   \   000017   6004         JZ      ??GenericApp_ProcessEvent_3
   \   000019   2449         ADD     A,#0x49
   \   00001B   7024         JNZ     ??GenericApp_ProcessEvent_4
    221                {
    222                  
    223                  case ZDO_STATE_CHANGE:
    224                case AF_INCOMING_MSG_CMD:
    225                    
    226                   GenericApp_MessageMSGCB(MSGpkt);
   \                     ??GenericApp_ProcessEvent_3:
   \   00001D                ; Setup parameters for call to function GenericApp_MessageMSGCB
   \   00001D   EE           MOV     A,R6
   \   00001E   FA           MOV     R2,A
   \   00001F   EF           MOV     A,R7
   \   000020   FB           MOV     R3,A
   \   000021   12....       LCALL   ??GenericApp_MessageMSGCB?relay
    227                   
    228                    GenericApp_NwkState = (devStates_t)(MSGpkt->hdr.status);
   \   000024   8E82         MOV     DPL,R6
   \   000026   8F83         MOV     DPH,R7
   \   000028   A3           INC     DPTR
   \   000029   E0           MOVX    A,@DPTR
   \   00002A   90....       MOV     DPTR,#GenericApp_NwkState
   \   00002D   F0           MOVX    @DPTR,A
    229                    if (GenericApp_NwkState == DEV_END_DEVICE )
   \   00002E   6406         XRL     A,#0x6
   \   000030   700F         JNZ     ??GenericApp_ProcessEvent_4
    230                   {
    231                      // Start sending "the" message in a regular interval.
    232                  
    233                      GenericApp_SendTheMessage();
   \   000032                ; Setup parameters for call to function GenericApp_SendTheMessage
   \   000032   12....       LCALL   ??GenericApp_SendTheMessage?relay
    234                      osal_set_event(GenericApp_TaskID,SEND_DATA_EVENT);
   \   000035                ; Setup parameters for call to function osal_set_event
   \   000035   7A01         MOV     R2,#0x1
   \   000037   7B00         MOV     R3,#0x0
   \   000039   90....       MOV     DPTR,#GenericApp_TaskID
   \   00003C   E0           MOVX    A,@DPTR
   \   00003D   F9           MOV     R1,A
   \   00003E   12....       LCALL   ??osal_set_event?relay
    235                    }
    236                 
    237                  break;
    238                  
    239                  default:
    240                    break;
    241                }
    242          
    243                // Release the memory
    244                osal_msg_deallocate( (uint8 *)MSGpkt );
   \                     ??GenericApp_ProcessEvent_4:
   \   000041                ; Setup parameters for call to function osal_msg_deallocate
   \   000041   EE           MOV     A,R6
   \   000042   FA           MOV     R2,A
   \   000043   EF           MOV     A,R7
   \   000044   FB           MOV     R3,A
   \   000045   12....       LCALL   ??osal_msg_deallocate?relay
    245          
    246                // Next
    247                MSGpkt = (afIncomingMSGPacket_t *)osal_msg_receive( GenericApp_TaskID );
   \   000048                ; Setup parameters for call to function osal_msg_receive
   \                     ??GenericApp_ProcessEvent_1:
   \   000048   90....       MOV     DPTR,#GenericApp_TaskID
   \   00004B   E0           MOVX    A,@DPTR
   \   00004C   F9           MOV     R1,A
   \   00004D   12....       LCALL   ??osal_msg_receive?relay
   \   000050   8A..         MOV     ?V0 + 2,R2
   \   000052   8B..         MOV     ?V0 + 3,R3
   \   000054   AE..         MOV     R6,?V0 + 2
   \   000056   AF..         MOV     R7,?V0 + 3
    248              }
   \   000058   EE           MOV     A,R6
   \   000059   4F           ORL     A,R7
   \   00005A   70B4         JNZ     ??GenericApp_ProcessEvent_2
    249          
    250              // return unprocessed events
    251              return (events ^ SYS_EVENT_MSG);
   \   00005C   AA..         MOV     R2,?V0 + 0
   \   00005E   E5..         MOV     A,?V0 + 1
   \   000060   6480         XRL     A,#0x80
   \   000062   FB           MOV     R3,A
   \   000063   8025         SJMP    ??GenericApp_ProcessEvent_5
    252            }
    253            if(events & SEND_DATA_EVENT)
   \                     ??GenericApp_ProcessEvent_0:
   \   000065   EA           MOV     A,R2
   \   000066   A2E0         MOV     C,0xE0 /* A   */.0
   \   000068   501C         JNC     ??GenericApp_ProcessEvent_6
    254            {
    255              ///HalLedBlink(HAL_LED_1,0,50,500);
    256              GenericApp_SendTheMessage();
   \   00006A                ; Setup parameters for call to function GenericApp_SendTheMessage
   \   00006A   12....       LCALL   ??GenericApp_SendTheMessage?relay
    257              //HalLedBlink(HAL_LED_1,0,50,500);
    258               //check();
    259               osal_start_timerEx(GenericApp_TaskID,SEND_DATA_EVENT,1500);//定时1200ms
   \   00006D                ; Setup parameters for call to function osal_start_timerEx
   \   00006D   7CDC         MOV     R4,#-0x24
   \   00006F   7D05         MOV     R5,#0x5
   \   000071   7A01         MOV     R2,#0x1
   \   000073   7B00         MOV     R3,#0x0
   \   000075   90....       MOV     DPTR,#GenericApp_TaskID
   \   000078   E0           MOVX    A,@DPTR
   \   000079   F9           MOV     R1,A
   \   00007A   12....       LCALL   ??osal_start_timerEx?relay
    260               return(events^SEND_DATA_EVENT);
   \   00007D   E5..         MOV     A,?V0 + 0
   \   00007F   6401         XRL     A,#0x1
   \   000081   FA           MOV     R2,A
   \   000082   AB..         MOV     R3,?V0 + 1
   \   000084   8004         SJMP    ??GenericApp_ProcessEvent_5
    261            
    262            }
    263             //Discard unknown events
    264            return 0;
   \                     ??GenericApp_ProcessEvent_6:
   \   000086   7A00         MOV     R2,#0x0
   \   000088   7B00         MOV     R3,#0x0
   \                     ??GenericApp_ProcessEvent_5:
   \   00008A   7F04         MOV     R7,#0x4
   \   00008C   02....       LJMP    ?BANKED_LEAVE_XDATA
    265          }
    266          

   \                                 In  segment XDATA_Z, align 1, keep-with-next
    267          uchar wen[6];
   \                     wen:
   \   000000                DS 6
   \   000006                REQUIRE __INIT_XDATA_Z
    268          

   \                                 In  segment BANKED_CODE, align 1, keep-with-next
    269           void GenericApp_SendTheMessage( void )
   \                     GenericApp_SendTheMessage:
    270          {
   \   000000   74F6         MOV     A,#-0xa
   \   000002   12....       LCALL   ?BANKED_ENTER_XDATA
   \   000005                ; Saved register size: 10
   \   000005                ; Auto size: 12
   \   000005   74F4         MOV     A,#-0xc
   \   000007   12....       LCALL   ?ALLOC_XSTACK8
    271            
    272            afAddrType_t my_DstAddr;
    273           my_DstAddr.addrMode=(afAddrMode_t)Addr16Bit;
   \   00000A   7408         MOV     A,#0x8
   \   00000C   12....       LCALL   ?XSTACK_DISP0_8
   \   00000F   7402         MOV     A,#0x2
   \   000011   F0           MOVX    @DPTR,A
    274           my_DstAddr.endPoint=GENERICAPP_ENDPOINT;
   \   000012   7409         MOV     A,#0x9
   \   000014   12....       LCALL   ?XSTACK_DISP0_8
   \   000017   740A         MOV     A,#0xa
   \   000019   F0           MOVX    @DPTR,A
    275           my_DstAddr.addr.shortAddr=0x0000;
   \   00001A   85..82       MOV     DPL,?XSP + 0
   \   00001D   85..83       MOV     DPH,?XSP + 1
   \   000020   E4           CLR     A
   \   000021   F0           MOVX    @DPTR,A
   \   000022   A3           INC     DPTR
   \   000023   F0           MOVX    @DPTR,A
    276           
    277           DHT11();
   \   000024                ; Setup parameters for call to function DHT11
   \   000024   12....       LCALL   ??DHT11?relay
    278          
    279           wen[0]=wendu_shi+0x30;
   \   000027   90....       MOV     DPTR,#wendu_shi
   \   00002A   E0           MOVX    A,@DPTR
   \   00002B   2430         ADD     A,#0x30
   \   00002D   90....       MOV     DPTR,#wen
   \   000030   F0           MOVX    @DPTR,A
    280           wen[1]=wendu_ge%10+0x30;
   \   000031   90....       MOV     DPTR,#wendu_ge
   \   000034   12....       LCALL   ?Subroutine5 & 0xFFFF
   \                     ??CrossCallReturnLabel_10:
   \   000037   90....       MOV     DPTR,#wen + 1
   \   00003A   F0           MOVX    @DPTR,A
    281           wen[2]=':';
   \   00003B   A3           INC     DPTR
   \   00003C   743A         MOV     A,#0x3a
   \   00003E   F0           MOVX    @DPTR,A
    282           wen[3]= shidu_shi+0x30;
   \   00003F   90....       MOV     DPTR,#shidu_shi
   \   000042   E0           MOVX    A,@DPTR
   \   000043   2430         ADD     A,#0x30
   \   000045   90....       MOV     DPTR,#wen + 3
   \   000048   F0           MOVX    @DPTR,A
    283           wen[4]=shidu_ge%10+0x30;
   \   000049   90....       MOV     DPTR,#shidu_ge
   \   00004C   12....       LCALL   ?Subroutine5 & 0xFFFF
   \                     ??CrossCallReturnLabel_11:
   \   00004F   90....       MOV     DPTR,#wen + 4
   \   000052   F0           MOVX    @DPTR,A
    284           
    285           AF_DataRequest( &my_DstAddr, &GenericApp_epDesc,
    286                                 GENERICAPP_CLUSTERID,
    287                                  osal_strlen(wen)+1, 
                                                     ^
Warning[Pe167]: argument of type "unsigned char *" is incompatible with
          parameter of type "char *"
    288                                 wen,
    289                                //theMessageData,
    290                                 &GenericApp_TransID,
    291                                 AF_DISCV_ROUTE, AF_DEFAULT_RADIUS);
   \   000053                ; Setup parameters for call to function AF_DataRequest
   \   000053   75..1E       MOV     ?V0 + 0,#0x1e
   \   000056   78..         MOV     R0,#?V0 + 0
   \   000058   12....       LCALL   ?PUSH_XSTACK_I_ONE
   \   00005B   75....       MOV     ?V0 + 0,#GenericApp_TransID & 0xff
   \   00005E   75....       MOV     ?V0 + 1,#(GenericApp_TransID >> 8) & 0xff
   \   000061   78..         MOV     R0,#?V0 + 0
   \   000063   12....       LCALL   ?PUSH_XSTACK_I_TWO
   \   000066   75....       MOV     ?V0 + 0,#wen & 0xff
   \   000069   75....       MOV     ?V0 + 1,#(wen >> 8) & 0xff
   \   00006C   78..         MOV     R0,#?V0 + 0
   \   00006E   12....       LCALL   ?PUSH_XSTACK_I_TWO
   \   000071                ; Setup parameters for call to function osal_strlen
   \   000071   7A..         MOV     R2,#wen & 0xff
   \   000073   7B..         MOV     R3,#(wen >> 8) & 0xff
   \   000075   12....       LCALL   ??osal_strlen?relay
   \   000078   EA           MOV     A,R2
   \   000079   2401         ADD     A,#0x1
   \   00007B   F5..         MOV     ?V0 + 0,A
   \   00007D   EB           MOV     A,R3
   \   00007E   3400         ADDC    A,#0x0
   \   000080   F5..         MOV     ?V0 + 1,A
   \   000082   78..         MOV     R0,#?V0 + 0
   \   000084   12....       LCALL   ?PUSH_XSTACK_I_TWO
   \   000087   75..01       MOV     ?V0 + 0,#0x1
   \   00008A   75..00       MOV     ?V0 + 1,#0x0
   \   00008D   78..         MOV     R0,#?V0 + 0
   \   00008F   12....       LCALL   ?PUSH_XSTACK_I_TWO
   \   000092   7920         MOV     R1,#0x20
   \   000094   7C..         MOV     R4,#GenericApp_epDesc & 0xff
   \   000096   7D..         MOV     R5,#(GenericApp_epDesc >> 8) & 0xff
   \   000098   7409         MOV     A,#0x9
   \   00009A   12....       LCALL   ?XSTACK_DISP0_8
   \   00009D   AA82         MOV     R2,DPL
   \   00009F   AB83         MOV     R3,DPH
   \   0000A1   12....       LCALL   ??AF_DataRequest?relay
   \   0000A4   7409         MOV     A,#0x9
   \   0000A6   12....       LCALL   ?DEALLOC_XSTACK8
    292            //HalLedBlink(HAL_LED_1,0,50,500);
    293           //HalLedBlink(HAL_LED_1,0,90,500);
    294            
    295            }
   \   0000A9   740C         MOV     A,#0xc
   \   0000AB   12....       LCALL   ?DEALLOC_XSTACK8
   \   0000AE   7F02         MOV     R7,#0x2
   \   0000B0   02....       LJMP    ?BANKED_LEAVE_XDATA

   \                                 In  segment BANKED_CODE, align 1, keep-with-next
   \                     ?Subroutine5:
   \   000000   12....       LCALL   ?Subroutine6 & 0xFFFF
   \                     ??CrossCallReturnLabel_14:
   \   000003   2430         ADD     A,#0x30
   \   000005   22           RET
    296          

   \                                 In  segment BANKED_CODE, align 1, keep-with-next
    297          void GenericApp_MessageMSGCB( afIncomingMSGPacket_t *pkt )//消息处理
   \                     GenericApp_MessageMSGCB:
    298          {
   \   000000   74F5         MOV     A,#-0xb
   \   000002   12....       LCALL   ?BANKED_ENTER_XDATA
   \   000005                ; Saved register size: 11
   \   000005                ; Auto size: 2
   \   000005   74FE         MOV     A,#-0x2
   \   000007   12....       LCALL   ?ALLOC_XSTACK8
   \   00000A   EA           MOV     A,R2
   \   00000B   FE           MOV     R6,A
   \   00000C   EB           MOV     A,R3
   \   00000D   FF           MOV     R7,A
    299            HalLedBlink(HAL_LED_1,0,50,500);
   \   00000E                ; Setup parameters for call to function HalLedBlink
   \   00000E   7CF4         MOV     R4,#-0xc
   \   000010   7D01         MOV     R5,#0x1
   \   000012   7B32         MOV     R3,#0x32
   \   000014   7A00         MOV     R2,#0x0
   \   000016   7901         MOV     R1,#0x1
   \   000018   12....       LCALL   ??HalLedBlink?relay
    300            unsigned char buffer[2]={'0'};
   \   00001B   90....       MOV     DPTR,#`?<Constant {48}>`
   \   00001E   C082         PUSH    DPL
   \   000020   85..82       MOV     DPL,?XSP + 0
   \   000023   85..83       MOV     DPH,?XSP + 1
   \   000026   AC82         MOV     R4,DPL
   \   000028   AD83         MOV     R5,DPH
   \   00002A   7583..       MOV     DPH,#(`?<Constant {48}>` >> 8) & 0xff
   \   00002D   D082         POP     DPL
   \   00002F   7402         MOV     A,#0x2
   \   000031   12....       LCALL   ?MOVE_LONG8_XDATA_XDATA
    301            switch ( pkt->clusterId )
   \   000034   8E82         MOV     DPL,R6
   \   000036   8F83         MOV     DPH,R7
   \   000038   A3           INC     DPTR
   \   000039   A3           INC     DPTR
   \   00003A   A3           INC     DPTR
   \   00003B   A3           INC     DPTR
   \   00003C   E0           MOVX    A,@DPTR
   \   00003D   6401         XRL     A,#0x1
   \   00003F   7002         JNZ     ??GenericApp_MessageMSGCB_0
   \   000041   A3           INC     DPTR
   \   000042   E0           MOVX    A,@DPTR
   \                     ??GenericApp_MessageMSGCB_0:
   \   000043   7055         JNZ     ??GenericApp_MessageMSGCB_1
    302            {
    303              case GENERICAPP_CLUSTERID:
    304                // "the" message
    305                
    306                osal_memcpy(buffer,pkt->cmd.Data,1);//将数据拷贝到缓冲区
   \   000045                ; Setup parameters for call to function osal_memcpy
   \   000045   EE           MOV     A,R6
   \   000046   2422         ADD     A,#0x22
   \   000048   F582         MOV     DPL,A
   \   00004A   EF           MOV     A,R7
   \   00004B   3400         ADDC    A,#0x0
   \   00004D   F583         MOV     DPH,A
   \   00004F   E0           MOVX    A,@DPTR
   \   000050   F5..         MOV     ?V0 + 0,A
   \   000052   A3           INC     DPTR
   \   000053   E0           MOVX    A,@DPTR
   \   000054   F5..         MOV     ?V0 + 1,A
   \   000056   75..00       MOV     ?V0 + 2,#0x0
   \   000059   78..         MOV     R0,#?V0 + 0
   \   00005B   12....       LCALL   ?PUSH_XSTACK_I_THREE
   \   00005E   7C01         MOV     R4,#0x1
   \   000060   7D00         MOV     R5,#0x0
   \   000062   7403         MOV     A,#0x3
   \   000064   12....       LCALL   ?XSTACK_DISP0_8
   \   000067   AA82         MOV     R2,DPL
   \   000069   AB83         MOV     R3,DPH
   \   00006B   12....       LCALL   ??osal_memcpy?relay
   \   00006E   7403         MOV     A,#0x3
   \   000070   12....       LCALL   ?DEALLOC_XSTACK8
    307                
    308                if(buffer[0]=='2'){
   \   000073   85..82       MOV     DPL,?XSP + 0
   \   000076   85..83       MOV     DPH,?XSP + 1
   \   000079   E0           MOVX    A,@DPTR
   \   00007A   6432         XRL     A,#0x32
   \   00007C   7006         JNZ     ??GenericApp_MessageMSGCB_2
    309                  
    310                  //HalLedBlink(HAL_LED_1,0,50,500);
    311                  P1_0=1;
   \   00007E   D290         SETB    0x90.0
    312                  P1_1=0;
   \   000080   C291         CLR     0x90.1
   \   000082   8016         SJMP    ??GenericApp_MessageMSGCB_1
    313                //HalLedBlink(HAL_LED_1,0,50,500);
    314                  //osal_memcpy(theMessageData,"OFF",20);//将数据拷贝到缓冲区
    315                
    316                }
    317                else if(buffer[0]=='3'){
   \                     ??GenericApp_MessageMSGCB_2:
   \   000084   E0           MOVX    A,@DPTR
   \   000085   6433         XRL     A,#0x33
   \   000087   7011         JNZ     ??GenericApp_MessageMSGCB_1
    318                  P1_0=0;
   \   000089   C290         CLR     0x90.0
    319                  P1_1=0;
   \   00008B   C291         CLR     0x90.1
    320                  HalLedBlink(HAL_LED_1,0,50,500);
   \   00008D                ; Setup parameters for call to function HalLedBlink
   \   00008D   7CF4         MOV     R4,#-0xc
   \   00008F   7D01         MOV     R5,#0x1
   \   000091   7B32         MOV     R3,#0x32
   \   000093   7A00         MOV     R2,#0x0
   \   000095   7901         MOV     R1,#0x1
   \   000097   12....       LCALL   ??HalLedBlink?relay
    321                }
    322               //HalUARTWrite(0,buffer,20);
    323                break;
    324            }
    325            
    326          }
   \                     ??GenericApp_MessageMSGCB_1:
   \   00009A   7402         MOV     A,#0x2
   \   00009C   12....       LCALL   ?DEALLOC_XSTACK8
   \   00009F   7F03         MOV     R7,#0x3
   \   0000A1   02....       LJMP    ?BANKED_LEAVE_XDATA
   \   0000A4                REQUIRE _A_P1

   \                                 In  segment BANK_RELAYS, align 1
   \                     ??Delay_us?relay:
   \   000000   12....       LCALL   ?BDISPATCH
   \   000003   ......       DC24    Delay_us

   \                                 In  segment BANK_RELAYS, align 1
   \                     ??Delay_10us?relay:
   \   000000   12....       LCALL   ?BDISPATCH
   \   000003   ......       DC24    Delay_10us

   \                                 In  segment BANK_RELAYS, align 1
   \                     ??Delay_ms?relay:
   \   000000   12....       LCALL   ?BDISPATCH
   \   000003   ......       DC24    Delay_ms

   \                                 In  segment BANK_RELAYS, align 1
   \                     ??COM?relay:
   \   000000   12....       LCALL   ?BDISPATCH
   \   000003   ......       DC24    COM

   \                                 In  segment BANK_RELAYS, align 1
   \                     ??DHT11?relay:
   \   000000   12....       LCALL   ?BDISPATCH
   \   000003   ......       DC24    DHT11

   \                                 In  segment BANK_RELAYS, align 1
   \                     ??GenericApp_Init?relay:
   \   000000   12....       LCALL   ?BDISPATCH
   \   000003   ......       DC24    GenericApp_Init

   \                                 In  segment BANK_RELAYS, align 1
   \                     ??GenericApp_ProcessEvent?relay:
   \   000000   12....       LCALL   ?BDISPATCH
   \   000003   ......       DC24    GenericApp_ProcessEvent

   \                                 In  segment BANK_RELAYS, align 1
   \                     ??GenericApp_SendTheMessage?relay:
   \   000000   12....       LCALL   ?BDISPATCH
   \   000003   ......       DC24    GenericApp_SendTheMessage

   \                                 In  segment BANK_RELAYS, align 1
   \                     ??GenericApp_MessageMSGCB?relay:
   \   000000   12....       LCALL   ?BDISPATCH
   \   000003   ......       DC24    GenericApp_MessageMSGCB

   \                                 In  segment XDATA_ROM_C, align 1
   \                     `?<Constant {48}>`:
   \   000000   30           DB 48
   \   000001   00           DB 0

   Maximum stack usage in bytes:

     Function                       ISTACK PSTACK XSTACK
     --------                       ------ ------ ------
     COM                                2      0      9
       -> Onboard_wait                  0      0     18
       -> Onboard_wait                  0      0     18
       -> Onboard_wait                  0      0     18
     DHT11                              8      0     22
       -> Delay_ms                      4      0      0
       -> Onboard_wait                  4      0      0
       -> Onboard_wait                  4      0      0
       -> Onboard_wait                  4      0      0
       -> Onboard_wait                  4      0      0
       -> COM                           4      0      0
       -> COM                           4      0      0
       -> COM                           4      0      0
       -> COM                           4      0      0
       -> COM                           4      0      0
     Delay_10us                         2      0      0
       -> Onboard_wait                  4      0      0
     Delay_ms                           0      0      9
       -> Onboard_wait                  0      0     18
     Delay_us                           2      0      0
       -> Onboard_wait                  4      0      0
     GenericApp_Init                    2      0      0
     GenericApp_MessageMSGCB            2      0     28
       -> HalLedBlink                   0      0     26
       -> osal_memcpy                   0      0     32
       -> HalLedBlink                   0      0     26
     GenericApp_ProcessEvent            0      0     12
       -> osal_msg_receive              0      0     24
       -> GenericApp_MessageMSGCB       0      0     24
       -> GenericApp_SendTheMessage     0      0     24
       -> osal_set_event                0      0     24
       -> osal_msg_deallocate           0      0     24
       -> osal_msg_receive              0      0     24
       -> GenericApp_SendTheMessage     0      0     24
       -> osal_start_timerEx            0      0     24
     GenericApp_SendTheMessage          0      0     43
       -> DHT11                         0      0     44
       -> osal_strlen                   0      0     54
       -> AF_DataRequest                0      0     62


   Segment part sizes:

     Function/Label                    Bytes
     --------------                    -----
     _A_P0                                1
     _A_P1                                1
     P0DIR                                1
     shidu_shi                            1
     shidu_ge                             1
     wendu_shi                            1
     wendu_ge                             1
     ucharFLAG                            1
     uchartemp                            1
     ucharT_data_H                        1
     ucharT_data_L                        1
     ucharRH_data_H                       1
     ucharRH_data_L                       1
     ucharcheckdata                       1
     ucharT_data_H_temp                   1
     ucharT_data_L_temp                   1
     ucharRH_data_H_temp                  1
     ucharRH_data_L_temp                  1
     ucharcheckdata_temp                  1
     ucharcomdata                         1
     Delay_us                             9
     ?Subroutine0                         5
     ??Subroutine7_0                      7
     Delay_10us                           9
     Delay_ms                            43
     ?Subroutine1                         5
     COM                                 85
     ?Subroutine4                         8
     ?Subroutine2                        22
     DHT11                              260
     ?Subroutine3                         9
     ?Subroutine6                         8
     GenericApp_ClusterList               2
     GenericApp_SimpleDesc               12
     GenericApp_epDesc                    6
     GenericApp_TaskID                    1
     GenericApp_TransID                   1
     GenericApp_NwkState                  1
     GenericApp_Init                     51
     GenericApp_ProcessEvent            143
     wen                                  6
     GenericApp_SendTheMessage          179
     ?Subroutine5                         6
     GenericApp_MessageMSGCB            164
     ??Delay_us?relay                     6
     ??Delay_10us?relay                   6
     ??Delay_ms?relay                     6
     ??COM?relay                          6
     ??DHT11?relay                        6
     ??GenericApp_Init?relay              6
     ??GenericApp_ProcessEvent?relay      6
     ??GenericApp_SendTheMessage?relay    6
     ??GenericApp_MessageMSGCB?relay      6
     ?<Constant {48}>                     2

 
 1 013 bytes in segment BANKED_CODE
    54 bytes in segment BANK_RELAYS
     3 bytes in segment SFR_AN
    16 bytes in segment XDATA_ROM_C
    32 bytes in segment XDATA_Z
 
 1 067 bytes of CODE  memory
    16 bytes of CONST memory
     0 bytes of DATA  memory (+ 3 bytes shared)
    32 bytes of XDATA memory

Errors: none
Warnings: 1
