///////////////////////////////////////////////////////////////////////////////
//                                                                            /
// IAR C/C++ Compiler V8.10.1.10194/W32 for 8051        18/Jun/2018  16:24:52 /
// Copyright 2004-2011 IAR Systems AB.                                        /
//                                                                            /
//    Core               =  plain                                             /
//    Code model         =  banked                                            /
//    Data model         =  large                                             /
//    Calling convention =  xdata reentrant                                   /
//    Constant location  =  data_rom                                          /
//    Dptr setup         =  1,16                                              /
//    Source file        =  C:\Texas Instruments\ZStack-CC2530-2.5.1a\Project /
//                          s\zstack\Samples\GenericApp\Source\fengshan.c     /
//    Command line       =  -f "C:\Texas Instruments\ZStack-CC2530-2.5.1a\Pro /
//                          jects\zstack\Samples\GenericApp\CC2530DB\..\..\.. /
//                          \Tools\CC2530DB\f8wCoord.cfg" (-DCPU32MHZ         /
//                          -DROOT=__near_func -DMAC_CFG_APP_PENDING_QUEUE=TR /
//                          UE -DMAC_CFG_TX_DATA_MAX=5 -DMAC_CFG_TX_MAX=8     /
//                          -DMAC_CFG_RX_MAX=5 -DZDO_COORDINATOR -DRTR_NWK)   /
//                          -f "C:\Texas Instruments\ZStack-CC2530-2.5.1a\Pro /
//                          jects\zstack\Samples\GenericApp\CC2530DB\..\..\.. /
//                          \Tools\CC2530DB\f8wConfig.cfg" (-DZIGBEEPRO       /
//                          -DSECURE=0 -DZG_SECURE_DYNAMIC=0 -DREFLECTOR      /
//                          -DDEFAULT_CHANLIST=0x00000800                     /
//                          -DZDAPP_CONFIG_PAN_ID=0xFFFF                      /
//                          -DNWK_START_DELAY=100 -DEXTENDED_JOINING_RANDOM_M /
//                          ASK=0x007F -DBEACON_REQUEST_DELAY=100             /
//                          -DBEACON_REQ_DELAY_MASK=0x00FF                    /
//                          -DLINK_STATUS_JITTER_MASK=0x007F                  /
//                          -DROUTE_EXPIRY_TIME=30 -DAPSC_ACK_WAIT_DURATION_P /
//                          OLLED=3000 -DNWK_INDIRECT_MSG_TIMEOUT=7           /
//                          -DMAX_RREQ_ENTRIES=8 -DAPSC_MAX_FRAME_RETRIES=3   /
//                          -DNWK_MAX_DATA_RETRIES=2                          /
//                          -DMAX_POLL_FAILURE_RETRIES=2 -DMAX_BCAST=9        /
//                          -DAPS_MAX_GROUPS=16 -DMAX_RTG_ENTRIES=40          /
//                          -DNWK_MAX_BINDING_ENTRIES=4                       /
//                          -DMAX_BINDING_CLUSTER_IDS=4                       /
//                          "-DDEFAULT_KEY={0x01, 0x03, 0x05, 0x07, 0x09,     /
//                          0x0B, 0x0D, 0x0F, 0x00, 0x02, 0x04, 0x06, 0x08,   /
//                          0x0A, 0x0C, 0x0D}" -DMAC_MAX_FRAME_SIZE=116       /
//                          -DZDNWKMGR_MIN_TRANSMISSIONS=20 "-DCONST=const    /
//                          __code" -DGENERIC=__generic                       /
//                          -DRFD_RCVC_ALWAYS_ON=FALSE -DPOLL_RATE=1000       /
//                          -DQUEUED_POLL_RATE=100 -DRESPONSE_POLL_RATE=100)  /
//                          -DREJOIN_POLL_RATE=440 "C:\Texas                  /
//                          Instruments\ZStack-CC2530-2.5.1a\Projects\zstack\ /
//                          Samples\GenericApp\Source\fengshan.c" -D          /
//                          ZTOOL_P1 -D MT_TASK -D MT_SYS_FUNC -D             /
//                          MT_ZDO_FUNC -D LCD_SUPPORTED=DEBUG -lC "C:\Texas  /
//                          Instruments\ZStack-CC2530-2.5.1a\Projects\zstack\ /
//                          Samples\GenericApp\CC2530DB\CoordinatorEB\List\"  /
//                          -lA "C:\Texas Instruments\ZStack-CC2530-2.5.1a\Pr /
//                          ojects\zstack\Samples\GenericApp\CC2530DB\Coordin /
//                          atorEB\List\" --diag_suppress Pe001,Pa010 -o      /
//                          "C:\Texas Instruments\ZStack-CC2530-2.5.1a\Projec /
//                          ts\zstack\Samples\GenericApp\CC2530DB\Coordinator /
//                          EB\Obj\" -e --no_code_motion --debug              /
//                          --core=plain --dptr=16,1 --data_model=large       /
//                          --code_model=banked --calling_convention=xdata_re /
//                          entrant --place_constants=data_rom                /
//                          --nr_virtual_regs 16 -I "C:\Texas                 /
//                          Instruments\ZStack-CC2530-2.5.1a\Projects\zstack\ /
//                          Samples\GenericApp\CC2530DB\" -I "C:\Texas        /
//                          Instruments\ZStack-CC2530-2.5.1a\Projects\zstack\ /
//                          Samples\GenericApp\CC2530DB\..\Source\" -I        /
//                          "C:\Texas Instruments\ZStack-CC2530-2.5.1a\Projec /
//                          ts\zstack\Samples\GenericApp\CC2530DB\..\..\..\ZM /
//                          ain\TI2530DB\" -I "C:\Texas                       /
//                          Instruments\ZStack-CC2530-2.5.1a\Projects\zstack\ /
//                          Samples\GenericApp\CC2530DB\..\..\..\..\..\Compon /
//                          ents\hal\include\" -I "C:\Texas                   /
//                          Instruments\ZStack-CC2530-2.5.1a\Projects\zstack\ /
//                          Samples\GenericApp\CC2530DB\..\..\..\..\..\Compon /
//                          ents\hal\target\CC2530EB\" -I "C:\Texas           /
//                          Instruments\ZStack-CC2530-2.5.1a\Projects\zstack\ /
//                          Samples\GenericApp\CC2530DB\..\..\..\..\..\Compon /
//                          ents\mac\include\" -I "C:\Texas                   /
//                          Instruments\ZStack-CC2530-2.5.1a\Projects\zstack\ /
//                          Samples\GenericApp\CC2530DB\..\..\..\..\..\Compon /
//                          ents\mac\high_level\" -I "C:\Texas                /
//                          Instruments\ZStack-CC2530-2.5.1a\Projects\zstack\ /
//                          Samples\GenericApp\CC2530DB\..\..\..\..\..\Compon /
//                          ents\mac\low_level\srf04\" -I "C:\Texas           /
//                          Instruments\ZStack-CC2530-2.5.1a\Projects\zstack\ /
//                          Samples\GenericApp\CC2530DB\..\..\..\..\..\Compon /
//                          ents\mac\low_level\srf04\single_chip\" -I         /
//                          "C:\Texas Instruments\ZStack-CC2530-2.5.1a\Projec /
//                          ts\zstack\Samples\GenericApp\CC2530DB\..\..\..\.. /
//                          \..\Components\mt\" -I "C:\Texas                  /
//                          Instruments\ZStack-CC2530-2.5.1a\Projects\zstack\ /
//                          Samples\GenericApp\CC2530DB\..\..\..\..\..\Compon /
//                          ents\osal\include\" -I "C:\Texas                  /
//                          Instruments\ZStack-CC2530-2.5.1a\Projects\zstack\ /
//                          Samples\GenericApp\CC2530DB\..\..\..\..\..\Compon /
//                          ents\services\saddr\" -I "C:\Texas                /
//                          Instruments\ZStack-CC2530-2.5.1a\Projects\zstack\ /
//                          Samples\GenericApp\CC2530DB\..\..\..\..\..\Compon /
//                          ents\services\sdata\" -I "C:\Texas                /
//                          Instruments\ZStack-CC2530-2.5.1a\Projects\zstack\ /
//                          Samples\GenericApp\CC2530DB\..\..\..\..\..\Compon /
//                          ents\stack\af\" -I "C:\Texas                      /
//                          Instruments\ZStack-CC2530-2.5.1a\Projects\zstack\ /
//                          Samples\GenericApp\CC2530DB\..\..\..\..\..\Compon /
//                          ents\stack\nwk\" -I "C:\Texas                     /
//                          Instruments\ZStack-CC2530-2.5.1a\Projects\zstack\ /
//                          Samples\GenericApp\CC2530DB\..\..\..\..\..\Compon /
//                          ents\stack\sapi\" -I "C:\Texas                    /
//                          Instruments\ZStack-CC2530-2.5.1a\Projects\zstack\ /
//                          Samples\GenericApp\CC2530DB\..\..\..\..\..\Compon /
//                          ents\stack\sec\" -I "C:\Texas                     /
//                          Instruments\ZStack-CC2530-2.5.1a\Projects\zstack\ /
//                          Samples\GenericApp\CC2530DB\..\..\..\..\..\Compon /
//                          ents\stack\sys\" -I "C:\Texas                     /
//                          Instruments\ZStack-CC2530-2.5.1a\Projects\zstack\ /
//                          Samples\GenericApp\CC2530DB\..\..\..\..\..\Compon /
//                          ents\stack\zdo\" -I "C:\Texas                     /
//                          Instruments\ZStack-CC2530-2.5.1a\Projects\zstack\ /
//                          Samples\GenericApp\CC2530DB\..\..\..\..\..\Compon /
//                          ents\zmac\" -I "C:\Texas                          /
//                          Instruments\ZStack-CC2530-2.5.1a\Projects\zstack\ /
//                          Samples\GenericApp\CC2530DB\..\..\..\..\..\Compon /
//                          ents\zmac\f8w\" -Ohz --require_prototypes         /
//    List file          =  C:\Texas Instruments\ZStack-CC2530-2.5.1a\Project /
//                          s\zstack\Samples\GenericApp\CC2530DB\CoordinatorE /
//                          B\List\fengshan.s51                               /
//                                                                            /
//                                                                            /
///////////////////////////////////////////////////////////////////////////////

        NAME fengshan

        RTMODEL "__SystemLibrary", "CLib"
        RTMODEL "__calling_convention", "xdata_reentrant"
        RTMODEL "__code_model", "banked"
        RTMODEL "__core", "plain"
        RTMODEL "__data_model", "large"
        RTMODEL "__dptr_size", "16"
        RTMODEL "__extended_stack", "disabled"
        RTMODEL "__location_for_constants", "data"
        RTMODEL "__number_of_dptrs", "1"
        RTMODEL "__rt_version", "1"

        RSEG DOVERLAY:DATA:NOROOT(0)
        RSEG IOVERLAY:IDATA:NOROOT(0)
        RSEG ISTACK:IDATA:NOROOT(0)
        RSEG PSTACK:XDATA:NOROOT(0)
        RSEG XSTACK:XDATA:NOROOT(0)

        EXTERN ?ALLOC_XSTACK8
        EXTERN ?BANKED_ENTER_XDATA
        EXTERN ?BANKED_LEAVE_XDATA
        EXTERN ?BDISPATCH
        EXTERN ?BRET
        EXTERN ?DEALLOC_XSTACK8
        EXTERN ?PUSH_XSTACK_I_ONE
        EXTERN ?PUSH_XSTACK_I_THREE
        EXTERN ?PUSH_XSTACK_I_TWO
        EXTERN ?V0
        EXTERN ?XSP
        EXTERN ?XSTACK_DISP0_8
        EXTERN __INIT_XDATA_I
        EXTERN __INIT_XDATA_Z

        PUBLIC ??COM?relay
        FUNCTION ??COM?relay,0203H
        PUBLIC ??DHT11?relay
        FUNCTION ??DHT11?relay,0203H
        PUBLIC ??Delay_10us?relay
        FUNCTION ??Delay_10us?relay,0203H
        PUBLIC ??Delay_ms?relay
        FUNCTION ??Delay_ms?relay,0203H
        PUBLIC ??Delay_us?relay
        FUNCTION ??Delay_us?relay,0203H
        PUBLIC ??GenericApp_Init?relay
        FUNCTION ??GenericApp_Init?relay,0203H
        PUBLIC ??GenericApp_MessageMSGCB?relay
        FUNCTION ??GenericApp_MessageMSGCB?relay,0203H
        PUBLIC ??GenericApp_ProcessEvent?relay
        FUNCTION ??GenericApp_ProcessEvent?relay,0203H
        PUBLIC ??GenericApp_SendTheMessage?relay
        FUNCTION ??GenericApp_SendTheMessage?relay,0203H
        PUBLIC COM
        FUNCTION COM,021203H
        ARGFRAME XSTACK, 0, STACK
        ARGFRAME IOVERLAY, 0, STATIC
        ARGFRAME DOVERLAY, 0, STATIC
        LOCFRAME ISTACK, 2, STACK
        LOCFRAME XSTACK, 9, STACK
        PUBLIC DHT11
        FUNCTION DHT11,021203H
        ARGFRAME XSTACK, 22, STACK
        ARGFRAME IOVERLAY, 0, STATIC
        ARGFRAME DOVERLAY, 0, STATIC
        LOCFRAME ISTACK, 8, STACK
        PUBLIC Delay_10us
        FUNCTION Delay_10us,021203H
        ARGFRAME XSTACK, 0, STACK
        LOCFRAME ISTACK, 2, STACK
        PUBLIC Delay_ms
        FUNCTION Delay_ms,021203H
        ARGFRAME XSTACK, 0, STACK
        ARGFRAME IOVERLAY, 0, STATIC
        ARGFRAME DOVERLAY, 0, STATIC
        LOCFRAME XSTACK, 9, STACK
        PUBLIC Delay_us
        FUNCTION Delay_us,021203H
        ARGFRAME XSTACK, 0, STACK
        LOCFRAME ISTACK, 2, STACK
        PUBLIC GenericApp_ClusterList
        PUBLIC GenericApp_Init
        FUNCTION GenericApp_Init,021203H
        ARGFRAME XSTACK, 0, STACK
        LOCFRAME XSTACK, 38, STACK
        PUBLIC GenericApp_MessageMSGCB
        FUNCTION GenericApp_MessageMSGCB,021203H
        ARGFRAME XSTACK, 12, STACK
        ARGFRAME IOVERLAY, 0, STATIC
        ARGFRAME DOVERLAY, 0, STATIC
        LOCFRAME XSTACK, 16, STACK
        PUBLIC GenericApp_NwkState
        PUBLIC GenericApp_ProcessEvent
        FUNCTION GenericApp_ProcessEvent,021203H
        ARGFRAME XSTACK, 0, STACK
        LOCFRAME XSTACK, 12, STACK
        PUBLIC GenericApp_SendTheMessage
        FUNCTION GenericApp_SendTheMessage,021203H
        ARGFRAME XSTACK, 12, STACK
        ARGFRAME IOVERLAY, 0, STATIC
        ARGFRAME DOVERLAY, 0, STATIC
        LOCFRAME XSTACK, 31, STACK
        PUBLIC GenericApp_SimpleDesc
        PUBLIC GenericApp_TaskID
        PUBLIC GenericApp_TransID
        PUBLIC GenericApp_epDesc
        PUBWEAK P0DIR
        PUBWEAK _A_P0
        PUBLIC shidu_ge
        PUBLIC shidu_shi
        PUBLIC theMessageData
        PUBLIC uartbuf
        PUBLIC ucharFLAG
        PUBLIC ucharRH_data_H
        PUBLIC ucharRH_data_H_temp
        PUBLIC ucharRH_data_L
        PUBLIC ucharRH_data_L_temp
        PUBLIC ucharT_data_H
        PUBLIC ucharT_data_H_temp
        PUBLIC ucharT_data_L
        PUBLIC ucharT_data_L_temp
        PUBLIC ucharcheckdata
        PUBLIC ucharcheckdata_temp
        PUBLIC ucharcomdata
        PUBLIC uchartemp
        PUBLIC wen
        PUBLIC wendu_ge
        PUBLIC wendu_shi
        
        CFI Names cfiNames0
        CFI StackFrame CFA_SP SP IDATA
        CFI StackFrame CFA_PSP16 PSP16 XDATA
        CFI StackFrame CFA_XSP16 XSP16 XDATA
        CFI StaticOverlayFrame CFA_IOVERLAY IOVERLAY
        CFI StaticOverlayFrame CFA_DOVERLAY DOVERLAY
        CFI Resource `PSW.CY`:1, `B.BR0`:1, `B.BR1`:1, `B.BR2`:1, `B.BR3`:1
        CFI Resource `B.BR4`:1, `B.BR5`:1, `B.BR6`:1, `B.BR7`:1, `VB.BR8`:1
        CFI Resource `VB.BR9`:1, `VB.BR10`:1, `VB.BR11`:1, `VB.BR12`:1
        CFI Resource `VB.BR13`:1, `VB.BR14`:1, `VB.BR15`:1, VB:8, B:8, A:8
        CFI Resource PSW:8, DPL0:8, DPH0:8, R0:8, R1:8, R2:8, R3:8, R4:8, R5:8
        CFI Resource R6:8, R7:8, V0:8, V1:8, V2:8, V3:8, V4:8, V5:8, V6:8, V7:8
        CFI Resource V8:8, V9:8, V10:8, V11:8, V12:8, V13:8, V14:8, V15:8, SP:8
        CFI Resource PSPH:8, PSPL:8, PSP16:16, XSPH:8, XSPL:8, XSP16:16
        CFI VirtualResource ?RET:24
        CFI Resource ?BRET_EXT:8
        CFI VirtualResource ?RET_HIGH:8, ?RET_LOW:8
        CFI ResourceParts PSP16 PSPH, PSPL
        CFI ResourceParts XSP16 XSPH, XSPL
        CFI ResourceParts ?RET ?BRET_EXT, ?RET_HIGH, ?RET_LOW
        CFI EndNames cfiNames0
        
        CFI Common cfiCommon0 Using cfiNames0
        CFI CodeAlign 1
        CFI DataAlign -1
        CFI ReturnAddress ?RET CODE
        CFI CFA_DOVERLAY Used
        CFI CFA_IOVERLAY Used
        CFI CFA_SP SP+-3
        CFI CFA_PSP16 PSP16+0
        CFI CFA_XSP16 XSP16+0
        CFI `PSW.CY` SameValue
        CFI `B.BR0` SameValue
        CFI `B.BR1` SameValue
        CFI `B.BR2` SameValue
        CFI `B.BR3` SameValue
        CFI `B.BR4` SameValue
        CFI `B.BR5` SameValue
        CFI `B.BR6` SameValue
        CFI `B.BR7` SameValue
        CFI `VB.BR8` SameValue
        CFI `VB.BR9` SameValue
        CFI `VB.BR10` SameValue
        CFI `VB.BR11` SameValue
        CFI `VB.BR12` SameValue
        CFI `VB.BR13` SameValue
        CFI `VB.BR14` SameValue
        CFI `VB.BR15` SameValue
        CFI VB SameValue
        CFI B Undefined
        CFI A Undefined
        CFI PSW SameValue
        CFI DPL0 SameValue
        CFI DPH0 SameValue
        CFI R0 Undefined
        CFI R1 Undefined
        CFI R2 Undefined
        CFI R3 Undefined
        CFI R4 Undefined
        CFI R5 Undefined
        CFI R6 SameValue
        CFI R7 SameValue
        CFI V0 SameValue
        CFI V1 SameValue
        CFI V2 SameValue
        CFI V3 SameValue
        CFI V4 SameValue
        CFI V5 SameValue
        CFI V6 SameValue
        CFI V7 SameValue
        CFI V8 SameValue
        CFI V9 SameValue
        CFI V10 SameValue
        CFI V11 SameValue
        CFI V12 SameValue
        CFI V13 SameValue
        CFI V14 SameValue
        CFI V15 SameValue
        CFI PSPH Undefined
        CFI PSPL Undefined
        CFI XSPH Undefined
        CFI XSPL Undefined
        CFI ?RET Concat
        CFI ?BRET_EXT Frame(CFA_SP, 3)
        CFI ?RET_HIGH Frame(CFA_SP, 2)
        CFI ?RET_LOW Frame(CFA_SP, 1)
        CFI EndCommon cfiCommon0
        
        
        CFI Common cfiCommon1 Using cfiNames0
        CFI CodeAlign 1
        CFI DataAlign -1
        CFI ReturnAddress ?RET CODE
        CFI CFA_DOVERLAY Used
        CFI CFA_IOVERLAY Used
        CFI CFA_SP SP+-2
        CFI CFA_PSP16 PSP16+0
        CFI CFA_XSP16 XSP16+0
        CFI `PSW.CY` SameValue
        CFI `B.BR0` SameValue
        CFI `B.BR1` SameValue
        CFI `B.BR2` SameValue
        CFI `B.BR3` SameValue
        CFI `B.BR4` SameValue
        CFI `B.BR5` SameValue
        CFI `B.BR6` SameValue
        CFI `B.BR7` SameValue
        CFI `VB.BR8` SameValue
        CFI `VB.BR9` SameValue
        CFI `VB.BR10` SameValue
        CFI `VB.BR11` SameValue
        CFI `VB.BR12` SameValue
        CFI `VB.BR13` SameValue
        CFI `VB.BR14` SameValue
        CFI `VB.BR15` SameValue
        CFI VB SameValue
        CFI B SameValue
        CFI A SameValue
        CFI PSW SameValue
        CFI DPL0 SameValue
        CFI DPH0 SameValue
        CFI R0 SameValue
        CFI R1 SameValue
        CFI R2 SameValue
        CFI R3 SameValue
        CFI R4 SameValue
        CFI R5 SameValue
        CFI R6 SameValue
        CFI R7 SameValue
        CFI V0 SameValue
        CFI V1 SameValue
        CFI V2 SameValue
        CFI V3 SameValue
        CFI V4 SameValue
        CFI V5 SameValue
        CFI V6 SameValue
        CFI V7 SameValue
        CFI V8 SameValue
        CFI V9 SameValue
        CFI V10 SameValue
        CFI V11 SameValue
        CFI V12 SameValue
        CFI V13 SameValue
        CFI V14 SameValue
        CFI V15 SameValue
        CFI PSPH Undefined
        CFI PSPL Undefined
        CFI XSPH Undefined
        CFI XSPL Undefined
        CFI ?RET Concat
        CFI ?BRET_EXT SameValue
        CFI ?RET_HIGH Frame(CFA_SP, 2)
        CFI ?RET_LOW Frame(CFA_SP, 1)
        CFI EndCommon cfiCommon1
        
Onboard_wait        SYMBOL "Onboard_wait"
afRegister          SYMBOL "afRegister"
HalUARTOpen         SYMBOL "HalUARTOpen"
osal_msg_receive    SYMBOL "osal_msg_receive"
osal_msg_deallocate SYMBOL "osal_msg_deallocate"
osal_start_timerEx  SYMBOL "osal_start_timerEx"
AF_DataRequest      SYMBOL "AF_DataRequest"
HalLedBlink         SYMBOL "HalLedBlink"
osal_memcpy         SYMBOL "osal_memcpy"
??AF_DataRequest?relay SYMBOL "?relay", AF_DataRequest
??HalLedBlink?relay SYMBOL "?relay", HalLedBlink
??HalUARTOpen?relay SYMBOL "?relay", HalUARTOpen
??Onboard_wait?relay SYMBOL "?relay", Onboard_wait
??afRegister?relay  SYMBOL "?relay", afRegister
??osal_memcpy?relay SYMBOL "?relay", osal_memcpy
??osal_msg_deallocate?relay SYMBOL "?relay", osal_msg_deallocate
??osal_msg_receive?relay SYMBOL "?relay", osal_msg_receive
??osal_start_timerEx?relay SYMBOL "?relay", osal_start_timerEx
COM                 SYMBOL "COM"
??COM?relay         SYMBOL "?relay", COM
DHT11               SYMBOL "DHT11"
??DHT11?relay       SYMBOL "?relay", DHT11
Delay_10us          SYMBOL "Delay_10us"
??Delay_10us?relay  SYMBOL "?relay", Delay_10us
Delay_ms            SYMBOL "Delay_ms"
??Delay_ms?relay    SYMBOL "?relay", Delay_ms
Delay_us            SYMBOL "Delay_us"
??Delay_us?relay    SYMBOL "?relay", Delay_us
GenericApp_Init     SYMBOL "GenericApp_Init"
??GenericApp_Init?relay SYMBOL "?relay", GenericApp_Init
GenericApp_MessageMSGCB SYMBOL "GenericApp_MessageMSGCB"
??GenericApp_MessageMSGCB?relay SYMBOL "?relay", GenericApp_MessageMSGCB
GenericApp_ProcessEvent SYMBOL "GenericApp_ProcessEvent"
??GenericApp_ProcessEvent?relay SYMBOL "?relay", GenericApp_ProcessEvent
GenericApp_SendTheMessage SYMBOL "GenericApp_SendTheMessage"
??GenericApp_SendTheMessage?relay SYMBOL "?relay", GenericApp_SendTheMessage

        EXTERN Onboard_wait
        FUNCTION Onboard_wait,0202H
        ARGFRAME ISTACK, 2, STACK
        ARGFRAME PSTACK, 0, STACK
        ARGFRAME XSTACK, 9, STACK
        ARGFRAME IOVERLAY, 0, STATIC
        ARGFRAME DOVERLAY, 0, STATIC
        EXTERN afRegister
        FUNCTION afRegister,0202H
        ARGFRAME ISTACK, 0, STACK
        ARGFRAME PSTACK, 0, STACK
        ARGFRAME XSTACK, 38, STACK
        ARGFRAME IOVERLAY, 0, STATIC
        ARGFRAME DOVERLAY, 0, STATIC
        EXTERN HalUARTOpen
        FUNCTION HalUARTOpen,0202H
        ARGFRAME ISTACK, 0, STACK
        ARGFRAME PSTACK, 0, STACK
        ARGFRAME XSTACK, 38, STACK
        ARGFRAME IOVERLAY, 0, STATIC
        ARGFRAME DOVERLAY, 0, STATIC
        EXTERN osal_msg_receive
        FUNCTION osal_msg_receive,0202H
        ARGFRAME ISTACK, 0, STACK
        ARGFRAME PSTACK, 0, STACK
        ARGFRAME XSTACK, 12, STACK
        ARGFRAME IOVERLAY, 0, STATIC
        ARGFRAME DOVERLAY, 0, STATIC
        EXTERN osal_msg_deallocate
        FUNCTION osal_msg_deallocate,0202H
        ARGFRAME ISTACK, 0, STACK
        ARGFRAME PSTACK, 0, STACK
        ARGFRAME XSTACK, 12, STACK
        ARGFRAME IOVERLAY, 0, STATIC
        ARGFRAME DOVERLAY, 0, STATIC
        EXTERN osal_start_timerEx
        FUNCTION osal_start_timerEx,0202H
        ARGFRAME ISTACK, 0, STACK
        ARGFRAME PSTACK, 0, STACK
        ARGFRAME XSTACK, 12, STACK
        ARGFRAME IOVERLAY, 0, STATIC
        ARGFRAME DOVERLAY, 0, STATIC
        EXTERN AF_DataRequest
        FUNCTION AF_DataRequest,0202H
        ARGFRAME ISTACK, 0, STACK
        ARGFRAME PSTACK, 0, STACK
        ARGFRAME XSTACK, 31, STACK
        ARGFRAME IOVERLAY, 0, STATIC
        ARGFRAME DOVERLAY, 0, STATIC
        EXTERN HalLedBlink
        FUNCTION HalLedBlink,0202H
        ARGFRAME ISTACK, 0, STACK
        ARGFRAME PSTACK, 0, STACK
        ARGFRAME XSTACK, 22, STACK
        ARGFRAME IOVERLAY, 0, STATIC
        ARGFRAME DOVERLAY, 0, STATIC
        EXTERN osal_memcpy
        FUNCTION osal_memcpy,0202H
        ARGFRAME ISTACK, 0, STACK
        ARGFRAME PSTACK, 0, STACK
        ARGFRAME XSTACK, 16, STACK
        ARGFRAME IOVERLAY, 0, STATIC
        ARGFRAME DOVERLAY, 0, STATIC
        EXTERN ??AF_DataRequest?relay
        FUNCTION ??AF_DataRequest?relay,00H
        EXTERN ??HalLedBlink?relay
        FUNCTION ??HalLedBlink?relay,00H
        EXTERN ??HalUARTOpen?relay
        FUNCTION ??HalUARTOpen?relay,00H
        EXTERN ??Onboard_wait?relay
        FUNCTION ??Onboard_wait?relay,00H
        EXTERN ??afRegister?relay
        FUNCTION ??afRegister?relay,00H
        EXTERN ??osal_memcpy?relay
        FUNCTION ??osal_memcpy?relay,00H
        EXTERN ??osal_msg_deallocate?relay
        FUNCTION ??osal_msg_deallocate?relay,00H
        EXTERN ??osal_msg_receive?relay
        FUNCTION ??osal_msg_receive?relay,00H
        EXTERN ??osal_start_timerEx?relay
        FUNCTION ??osal_start_timerEx?relay,00H

// C:\Texas Instruments\ZStack-CC2530-2.5.1a\Projects\zstack\Samples\GenericApp\Source\fengshan.c
//    1 #include "OSAL.h"
//    2 #include "AF.h"
//    3 #include "ZDApp.h"
//    4 #include "ZDObject.h"
//    5 #include "ZDProfile.h"
//    6 
//    7 #include <ioCC2530.h>

        ASEGN SFR_AN:DATA:NOROOT,080H
// union <unnamed> volatile __sfr _A_P0
_A_P0:
        DATA8
        DS 1

        ASEGN SFR_AN:DATA:NOROOT,0fdH
// unsigned char volatile __sfr P0DIR
P0DIR:
        DATA8
        DS 1
//    8 #include "OnBoard.h"
//    9 
//   10 
//   11 #include "Coordinator.h"
//   12 #include "DebugTrace.h"
//   13 #if !defined( WIN32 )
//   14   #include "OnBoard.h"
//   15 #endif
//   16 
//   17 #include "hal_lcd.h"
//   18 #include "hal_led.h"
//   19 #include "hal_key.h"
//   20 #include "hal_uart.h"
//   21 #define SEND_DATA_EVENT 0x01
//   22 
//   23 #define on P0_1
//   24 #define end P0_2
//   25 #define DATA_PIN P0_7
//   26 typedef unsigned int  uint;
//   27 

        RSEG XDATA_ROM_C:CONST:REORDER:NOROOT(0)
        DATA16
//   28 const cId_t GenericApp_ClusterList[GENERICAPP_MAX_CLUSTERS] =
GenericApp_ClusterList:
        DW 1
//   29 {
//   30   GENERICAPP_CLUSTERID
//   31 };

        RSEG XDATA_ROM_C:CONST:REORDER:NOROOT(0)
        DATA8
//   32 const SimpleDescriptionFormat_t GenericApp_SimpleDesc =
GenericApp_SimpleDesc:
        DB 10
        DATA16
        DW 3844
        DW 1
        DATA8
        DB 0
        DB 1
        DATA16
        DW GenericApp_ClusterList
        DATA8
        DB 1
        DATA16
        DW GenericApp_ClusterList
//   33 {
//   34   GENERICAPP_ENDPOINT,              //  int Endpoint;
//   35   GENERICAPP_PROFID,                //  uint16 AppProfId[2];
//   36   GENERICAPP_DEVICEID,              //  uint16 AppDeviceId[2];
//   37   GENERICAPP_DEVICE_VERSION,        //  int   AppDevVer:4;
//   38   GENERICAPP_FLAGS,
//   39  GENERICAPP_MAX_CLUSTERS,
//   40   (cId_t *)GenericApp_ClusterList,
//   41   GENERICAPP_MAX_CLUSTERS,          //  byte  AppNumInClusters;
//   42   (cId_t *)GenericApp_ClusterList  //  byte *pAppInClusterList;
//   43 };

        RSEG XDATA_Z:XDATA:NOROOT(0)
        DATA8
//   44 endPointDesc_t GenericApp_epDesc;
GenericApp_epDesc:
        DS 6
        REQUIRE __INIT_XDATA_Z

        RSEG XDATA_Z:XDATA:NOROOT(0)
        DATA8
//   45 byte GenericApp_TaskID;   // Task ID for internal task/event processing
GenericApp_TaskID:
        DS 1
        REQUIRE __INIT_XDATA_Z
//   46                           // This variable will be received when
//   47                           // GenericApp_Init() is called.

        RSEG XDATA_Z:XDATA:NOROOT(0)
        DATA8
//   48 byte GenericApp_TransID;
GenericApp_TransID:
        DS 1
        REQUIRE __INIT_XDATA_Z

        RSEG XDATA_Z:XDATA:NOROOT(0)
        DATA8
//   49 devStates_t GenericApp_NwkState;
GenericApp_NwkState:
        DS 1
        REQUIRE __INIT_XDATA_Z
//   50  void GenericApp_MessageMSGCB( afIncomingMSGPacket_t *pckt );
//   51  void GenericApp_SendTheMessage( void );
//   52  
//   53  void Delay_us(void);
//   54  void Delay_10us(void);
//   55  void Delay_ms(uint Time);
//   56  void COM(void);
//   57  void DHT11(void); 
//   58    
//   59    
//   60   
//   61  static void rxCB(uint8 port,uint8 event);

        RSEG XDATA_Z:XDATA:NOROOT(0)
        DATA8
//   62  unsigned char uartbuf[20];
uartbuf:
        DS 20
        REQUIRE __INIT_XDATA_Z

        RSEG XDATA_I:XDATA:NOROOT(0)
//   63  unsigned char theMessageData[4] = "LED";
theMessageData:
        DATA32
        DS 4
        REQUIRE `?<Initializer for theMessageData>`
        REQUIRE __INIT_XDATA_I
//   64  //温湿度定义

        RSEG XDATA_Z:XDATA:NOROOT(0)
        DATA8
//   65 uchar ucharFLAG,uchartemp;
ucharFLAG:
        DS 1
        REQUIRE __INIT_XDATA_Z

        RSEG XDATA_Z:XDATA:NOROOT(0)
        DATA8
uchartemp:
        DS 1
        REQUIRE __INIT_XDATA_Z

        RSEG XDATA_Z:XDATA:NOROOT(0)
        DATA8
//   66 uchar shidu_shi,shidu_ge,wendu_shi,wendu_ge=4;
shidu_shi:
        DS 1
        REQUIRE __INIT_XDATA_Z

        RSEG XDATA_Z:XDATA:NOROOT(0)
        DATA8
shidu_ge:
        DS 1
        REQUIRE __INIT_XDATA_Z

        RSEG XDATA_Z:XDATA:NOROOT(0)
        DATA8
wendu_shi:
        DS 1
        REQUIRE __INIT_XDATA_Z

        RSEG XDATA_I:XDATA:NOROOT(0)
wendu_ge:
        DATA8
        DS 1
        REQUIRE `?<Initializer for wendu_ge>`
        REQUIRE __INIT_XDATA_I

        RSEG XDATA_Z:XDATA:NOROOT(0)
        DATA8
//   67 uchar ucharT_data_H,ucharT_data_L,ucharRH_data_H,ucharRH_data_L,ucharcheckdata;
ucharT_data_H:
        DS 1
        REQUIRE __INIT_XDATA_Z

        RSEG XDATA_Z:XDATA:NOROOT(0)
        DATA8
ucharT_data_L:
        DS 1
        REQUIRE __INIT_XDATA_Z

        RSEG XDATA_Z:XDATA:NOROOT(0)
        DATA8
ucharRH_data_H:
        DS 1
        REQUIRE __INIT_XDATA_Z

        RSEG XDATA_Z:XDATA:NOROOT(0)
        DATA8
ucharRH_data_L:
        DS 1
        REQUIRE __INIT_XDATA_Z

        RSEG XDATA_Z:XDATA:NOROOT(0)
        DATA8
ucharcheckdata:
        DS 1
        REQUIRE __INIT_XDATA_Z

        RSEG XDATA_Z:XDATA:NOROOT(0)
        DATA8
//   68 uchar ucharT_data_H_temp,ucharT_data_L_temp,ucharRH_data_H_temp,ucharRH_data_L_temp,ucharcheckdata_temp;
ucharT_data_H_temp:
        DS 1
        REQUIRE __INIT_XDATA_Z

        RSEG XDATA_Z:XDATA:NOROOT(0)
        DATA8
ucharT_data_L_temp:
        DS 1
        REQUIRE __INIT_XDATA_Z

        RSEG XDATA_Z:XDATA:NOROOT(0)
        DATA8
ucharRH_data_H_temp:
        DS 1
        REQUIRE __INIT_XDATA_Z

        RSEG XDATA_Z:XDATA:NOROOT(0)
        DATA8
ucharRH_data_L_temp:
        DS 1
        REQUIRE __INIT_XDATA_Z

        RSEG XDATA_Z:XDATA:NOROOT(0)
        DATA8
ucharcheckdata_temp:
        DS 1
        REQUIRE __INIT_XDATA_Z

        RSEG XDATA_Z:XDATA:NOROOT(0)
        DATA8
//   69 uchar ucharcomdata;
ucharcomdata:
        DS 1
        REQUIRE __INIT_XDATA_Z

        RSEG XDATA_Z:XDATA:NOROOT(0)
        DATA8
//   70 uchar wen[6];
wen:
        DS 6
        REQUIRE __INIT_XDATA_Z
//   71 
//   72 
//   73 
//   74 
//   75 
//   76 //延时函数

        RSEG BANKED_CODE:CODE:NOROOT(0)
//   77 void Delay_us() //1 us延时
Delay_us:
        CFI Block cfiBlock0 Using cfiCommon0
        CFI Function Delay_us
        CODE
//   78 {
        FUNCALL Delay_us, Onboard_wait
        LOCFRAME ISTACK, 2, STACK
        LOCFRAME PSTACK, 0, STACK
        LOCFRAME XSTACK, 0, STACK
        LOCFRAME IOVERLAY, 0, STATIC
        LOCFRAME DOVERLAY, 0, STATIC
        ARGFRAME ISTACK, 2, STACK
        ARGFRAME PSTACK, 0, STACK
        ARGFRAME XSTACK, 0, STACK
        ARGFRAME IOVERLAY, 0, STATIC
        ARGFRAME DOVERLAY, 0, STATIC
        PUSH    DPL
        CFI DPL0 Frame(CFA_SP, 4)
        CFI CFA_SP SP+-4
        PUSH    DPH
        CFI DPH0 Frame(CFA_SP, 5)
        CFI CFA_SP SP+-5
        ; Saved register size: 2
        ; Auto size: 0
//   79 
//   80     MicroWait(1);
        ; Setup parameters for call to function Onboard_wait
        MOV     R2,#0x1
        CFI EndBlock cfiBlock0
        REQUIRE ?Subroutine0
        ; // Fall through to label ?Subroutine0
//   81 }

        RSEG BANKED_CODE:CODE:NOROOT(0)
?Subroutine0:
        CFI Block cfiBlock1 Using cfiCommon0
        CFI NoFunction
        CFI CFA_SP SP+-5
        CFI DPL0 Frame(CFA_SP, 4)
        CFI DPH0 Frame(CFA_SP, 5)
        MOV     R3,#0x0
        LCALL   ??Onboard_wait?relay
        CFI EndBlock cfiBlock1
        REQUIRE ??Subroutine5_0
        ; // Fall through to label ??Subroutine5_0

        RSEG BANKED_CODE:CODE:NOROOT(0)
??Subroutine5_0:
        CFI Block cfiBlock2 Using cfiCommon0
        CFI NoFunction
        CFI CFA_SP SP+-5
        CFI DPL0 Frame(CFA_SP, 4)
        CFI DPH0 Frame(CFA_SP, 5)
        POP     DPH
        CFI CFA_SP SP+-4
        CFI DPH0 SameValue
        POP     DPL
        CFI CFA_SP SP+-3
        CFI DPL0 SameValue
        LJMP    ?BRET
        CFI EndBlock cfiBlock2
//   82 
//   83 

        RSEG BANKED_CODE:CODE:NOROOT(0)
//   84 void Delay_10us() //10 us延时
Delay_10us:
        CFI Block cfiBlock3 Using cfiCommon0
        CFI Function Delay_10us
        CODE
//   85 {
        FUNCALL Delay_10us, Onboard_wait
        LOCFRAME ISTACK, 2, STACK
        LOCFRAME PSTACK, 0, STACK
        LOCFRAME XSTACK, 0, STACK
        LOCFRAME IOVERLAY, 0, STATIC
        LOCFRAME DOVERLAY, 0, STATIC
        ARGFRAME ISTACK, 2, STACK
        ARGFRAME PSTACK, 0, STACK
        ARGFRAME XSTACK, 0, STACK
        ARGFRAME IOVERLAY, 0, STATIC
        ARGFRAME DOVERLAY, 0, STATIC
        PUSH    DPL
        CFI DPL0 Frame(CFA_SP, 4)
        CFI CFA_SP SP+-4
        PUSH    DPH
        CFI DPH0 Frame(CFA_SP, 5)
        CFI CFA_SP SP+-5
        ; Saved register size: 2
        ; Auto size: 0
//   86   MicroWait(10);
        ; Setup parameters for call to function Onboard_wait
        MOV     R2,#0xa
        SJMP    ?Subroutine0
        CFI EndBlock cfiBlock3
//   87 }
//   88 

        RSEG BANKED_CODE:CODE:NOROOT(0)
//   89 void Delay_ms(uint Time)//n ms延时
Delay_ms:
        CFI Block cfiBlock4 Using cfiCommon0
        CFI Function Delay_ms
        CODE
//   90 {
        FUNCALL Delay_ms, Onboard_wait
        LOCFRAME ISTACK, 0, STACK
        LOCFRAME PSTACK, 0, STACK
        LOCFRAME XSTACK, 9, STACK
        LOCFRAME IOVERLAY, 0, STATIC
        LOCFRAME DOVERLAY, 0, STATIC
        ARGFRAME ISTACK, 0, STACK
        ARGFRAME PSTACK, 0, STACK
        ARGFRAME XSTACK, 9, STACK
        ARGFRAME IOVERLAY, 0, STATIC
        ARGFRAME DOVERLAY, 0, STATIC
        MOV     A,#-0x9
        LCALL   ?BANKED_ENTER_XDATA
        CFI DPH0 load(1, XDATA, add(CFA_XSP16, literal(-1)))
        CFI DPL0 load(1, XDATA, add(CFA_XSP16, literal(-2)))
        CFI ?BRET_EXT load(1, XDATA, add(CFA_XSP16, literal(-3)))
        CFI ?RET_HIGH load(1, XDATA, add(CFA_XSP16, literal(-4)))
        CFI ?RET_LOW load(1, XDATA, add(CFA_XSP16, literal(-5)))
        CFI R7 load(1, XDATA, add(CFA_XSP16, literal(-6)))
        CFI V0 load(1, XDATA, add(CFA_XSP16, literal(-7)))
        CFI VB load(1, XDATA, add(CFA_XSP16, literal(-8)))
        CFI R6 load(1, XDATA, add(CFA_XSP16, literal(-9)))
        CFI CFA_SP SP+0
        CFI CFA_XSP16 add(XSP16, 9)
        ; Saved register size: 9
        ; Auto size: 0
        MOV     A,R2
        MOV     R6,A
        MOV     A,R3
        MOV     R7,A
//   91     unsigned char i;
//   92     while(Time--)
??Delay_ms_0:
        MOV     A,R6
        MOV     R0,A
        MOV     A,R7
        MOV     R1,A
        MOV     A,R0
        ADD     A,#-0x1
        DEC     R6
        MOV     A,R1
        ADDC    A,#-0x1
        MOV     R7,A
        MOV     A,R0
        ORL     A,R1
        JZ      ??Delay_ms_1
//   93     {
//   94         for(i=0;i<100;i++)
        MOV     ?V0 + 0,#0x64
//   95             Delay_10us();
??Delay_ms_2:
        ; Setup parameters for call to function Onboard_wait
        MOV     R2,#0xa
        MOV     R3,#0x0
        LCALL   ??Onboard_wait?relay
        DEC     ?V0 + 0
        MOV     A,?V0 + 0
        JZ      ??Delay_ms_0
        SJMP    ??Delay_ms_2
        CFI EndBlock cfiBlock4
//   96     }
//   97 }
??Delay_ms_1:
        REQUIRE ?Subroutine1
        ; // Fall through to label ?Subroutine1

        RSEG BANKED_CODE:CODE:NOROOT(0)
?Subroutine1:
        CFI Block cfiBlock5 Using cfiCommon0
        CFI NoFunction
        CFI CFA_SP SP+0
        CFI CFA_XSP16 add(XSP16, 9)
        CFI VB load(1, XDATA, add(CFA_XSP16, literal(-8)))
        CFI DPL0 load(1, XDATA, add(CFA_XSP16, literal(-2)))
        CFI DPH0 load(1, XDATA, add(CFA_XSP16, literal(-1)))
        CFI R6 load(1, XDATA, add(CFA_XSP16, literal(-9)))
        CFI R7 load(1, XDATA, add(CFA_XSP16, literal(-6)))
        CFI V0 load(1, XDATA, add(CFA_XSP16, literal(-7)))
        CFI ?BRET_EXT load(1, XDATA, add(CFA_XSP16, literal(-3)))
        CFI ?RET_HIGH load(1, XDATA, add(CFA_XSP16, literal(-4)))
        CFI ?RET_LOW load(1, XDATA, add(CFA_XSP16, literal(-5)))
        MOV     R7,#0x1
        LJMP    ?BANKED_LEAVE_XDATA
        CFI EndBlock cfiBlock5
//   98 
//   99 
//  100 //温湿度传感

        RSEG BANKED_CODE:CODE:NOROOT(0)
//  101 void COM(void)    // 温湿写入
COM:
        CFI Block cfiBlock6 Using cfiCommon0
        CFI Function COM
        CODE
//  102 {     
        FUNCALL COM, Onboard_wait
        LOCFRAME ISTACK, 0, STACK
        LOCFRAME PSTACK, 0, STACK
        LOCFRAME XSTACK, 9, STACK
        LOCFRAME IOVERLAY, 0, STATIC
        LOCFRAME DOVERLAY, 0, STATIC
        ARGFRAME ISTACK, 0, STACK
        ARGFRAME PSTACK, 0, STACK
        ARGFRAME XSTACK, 9, STACK
        ARGFRAME IOVERLAY, 0, STATIC
        ARGFRAME DOVERLAY, 0, STATIC
        FUNCALL COM, Onboard_wait
        LOCFRAME ISTACK, 0, STACK
        LOCFRAME PSTACK, 0, STACK
        LOCFRAME XSTACK, 9, STACK
        LOCFRAME IOVERLAY, 0, STATIC
        LOCFRAME DOVERLAY, 0, STATIC
        ARGFRAME ISTACK, 0, STACK
        ARGFRAME PSTACK, 0, STACK
        ARGFRAME XSTACK, 9, STACK
        ARGFRAME IOVERLAY, 0, STATIC
        ARGFRAME DOVERLAY, 0, STATIC
        FUNCALL COM, Onboard_wait
        LOCFRAME ISTACK, 0, STACK
        LOCFRAME PSTACK, 0, STACK
        LOCFRAME XSTACK, 9, STACK
        LOCFRAME IOVERLAY, 0, STATIC
        LOCFRAME DOVERLAY, 0, STATIC
        ARGFRAME ISTACK, 0, STACK
        ARGFRAME PSTACK, 0, STACK
        ARGFRAME XSTACK, 9, STACK
        ARGFRAME IOVERLAY, 0, STATIC
        ARGFRAME DOVERLAY, 0, STATIC
        MOV     A,#-0x9
        LCALL   ?BANKED_ENTER_XDATA
        CFI DPH0 load(1, XDATA, add(CFA_XSP16, literal(-1)))
        CFI DPL0 load(1, XDATA, add(CFA_XSP16, literal(-2)))
        CFI ?BRET_EXT load(1, XDATA, add(CFA_XSP16, literal(-3)))
        CFI ?RET_HIGH load(1, XDATA, add(CFA_XSP16, literal(-4)))
        CFI ?RET_LOW load(1, XDATA, add(CFA_XSP16, literal(-5)))
        CFI R7 load(1, XDATA, add(CFA_XSP16, literal(-6)))
        CFI V0 load(1, XDATA, add(CFA_XSP16, literal(-7)))
        CFI VB load(1, XDATA, add(CFA_XSP16, literal(-8)))
        CFI R6 load(1, XDATA, add(CFA_XSP16, literal(-9)))
        CFI CFA_SP SP+0
        CFI CFA_XSP16 add(XSP16, 9)
        ; Saved register size: 9
        ; Auto size: 0
//  103     uchar i;         
//  104     for(i=0;i<8;i++)    
        MOV     R6,#0x8
//  105     {
//  106         ucharFLAG=2; 
??COM_0:
        MOV     DPTR,#ucharFLAG
        MOV     A,#0x2
        MOVX    @DPTR,A
//  107         while((!DATA_PIN)&&ucharFLAG++);
??COM_1:
        MOV     C,0x80.7
        JC      ??COM_2
        LCALL   ?Subroutine4 & 0xFFFF
??CrossCallReturnLabel_6:
        JNZ     ??COM_1
//  108         Delay_10us();
??COM_2:
        ; Setup parameters for call to function Onboard_wait
        LCALL   ?Subroutine2 & 0xFFFF
//  109         Delay_10us();
//  110         Delay_10us();
//  111         uchartemp=0;
??CrossCallReturnLabel_0:
        MOV     DPTR,#uchartemp
        CLR     A
        MOVX    @DPTR,A
//  112         if(DATA_PIN)uchartemp=1;//如果超过30us还没置0，则数据为1，置0，则数据为0
        MOV     C,0x80.7
        JNC     ??COM_3
        INC     A
        MOVX    @DPTR,A
//  113         ucharFLAG=2;
??COM_3:
        MOV     DPTR,#ucharFLAG
        MOV     A,#0x2
        MOVX    @DPTR,A
//  114         while((DATA_PIN)&&ucharFLAG++); //等待置0  
??COM_4:
        MOV     C,0x80.7
        JNC     ??COM_5
        LCALL   ?Subroutine4 & 0xFFFF
??CrossCallReturnLabel_7:
        JNZ     ??COM_4
//  115         if(ucharFLAG==1)break;    
??COM_5:
        MOVX    A,@DPTR
        XRL     A,#0x1
        JZ      ??COM_6
//  116         ucharcomdata<<=1;//ucharcomdata左移一位赋值给ucharcomdata
//  117         ucharcomdata|=uchartemp;//两句合起来就是给最高位赋值
        MOV     DPTR,#uchartemp
        PUSH    DPL
        CFI CFA_SP SP+-1
        MOV     DPTR,#ucharcomdata
        MOVX    A,@DPTR
        CLR     C
        RLC     A
        MOV     DPH,#(uchartemp >> 8) & 0xff
        POP     DPL
        CFI CFA_SP SP+0
        MOV     R0,A
        MOVX    A,@DPTR
        ORL     A,R0
        MOV     DPTR,#ucharcomdata
        MOVX    @DPTR,A
//  118     }    
        DEC     R6
        MOV     A,R6
        JNZ     ??COM_0
//  119 }
??COM_6:
        SJMP    ?Subroutine1
        CFI EndBlock cfiBlock6
        REQUIRE _A_P0
//  120 
//  121 

        RSEG BANKED_CODE:CODE:NOROOT(0)
//  122 void DHT11(void)   //温湿传感启动
DHT11:
        CFI Block cfiBlock7 Using cfiCommon0
        CFI Function DHT11
        CODE
//  123 {
        FUNCALL DHT11, Delay_ms
        LOCFRAME ISTACK, 2, STACK
        LOCFRAME PSTACK, 0, STACK
        LOCFRAME XSTACK, 0, STACK
        LOCFRAME IOVERLAY, 0, STATIC
        LOCFRAME DOVERLAY, 0, STATIC
        ARGFRAME ISTACK, 2, STACK
        ARGFRAME PSTACK, 0, STACK
        ARGFRAME XSTACK, 0, STACK
        ARGFRAME IOVERLAY, 0, STATIC
        ARGFRAME DOVERLAY, 0, STATIC
        FUNCALL DHT11, Onboard_wait
        LOCFRAME ISTACK, 2, STACK
        LOCFRAME PSTACK, 0, STACK
        LOCFRAME XSTACK, 0, STACK
        LOCFRAME IOVERLAY, 0, STATIC
        LOCFRAME DOVERLAY, 0, STATIC
        ARGFRAME ISTACK, 2, STACK
        ARGFRAME PSTACK, 0, STACK
        ARGFRAME XSTACK, 0, STACK
        ARGFRAME IOVERLAY, 0, STATIC
        ARGFRAME DOVERLAY, 0, STATIC
        FUNCALL DHT11, Onboard_wait
        LOCFRAME ISTACK, 2, STACK
        LOCFRAME PSTACK, 0, STACK
        LOCFRAME XSTACK, 0, STACK
        LOCFRAME IOVERLAY, 0, STATIC
        LOCFRAME DOVERLAY, 0, STATIC
        ARGFRAME ISTACK, 2, STACK
        ARGFRAME PSTACK, 0, STACK
        ARGFRAME XSTACK, 0, STACK
        ARGFRAME IOVERLAY, 0, STATIC
        ARGFRAME DOVERLAY, 0, STATIC
        FUNCALL DHT11, Onboard_wait
        LOCFRAME ISTACK, 2, STACK
        LOCFRAME PSTACK, 0, STACK
        LOCFRAME XSTACK, 0, STACK
        LOCFRAME IOVERLAY, 0, STATIC
        LOCFRAME DOVERLAY, 0, STATIC
        ARGFRAME ISTACK, 2, STACK
        ARGFRAME PSTACK, 0, STACK
        ARGFRAME XSTACK, 0, STACK
        ARGFRAME IOVERLAY, 0, STATIC
        ARGFRAME DOVERLAY, 0, STATIC
        FUNCALL DHT11, Onboard_wait
        LOCFRAME ISTACK, 2, STACK
        LOCFRAME PSTACK, 0, STACK
        LOCFRAME XSTACK, 0, STACK
        LOCFRAME IOVERLAY, 0, STATIC
        LOCFRAME DOVERLAY, 0, STATIC
        ARGFRAME ISTACK, 2, STACK
        ARGFRAME PSTACK, 0, STACK
        ARGFRAME XSTACK, 0, STACK
        ARGFRAME IOVERLAY, 0, STATIC
        ARGFRAME DOVERLAY, 0, STATIC
        FUNCALL DHT11, COM
        LOCFRAME ISTACK, 2, STACK
        LOCFRAME PSTACK, 0, STACK
        LOCFRAME XSTACK, 0, STACK
        LOCFRAME IOVERLAY, 0, STATIC
        LOCFRAME DOVERLAY, 0, STATIC
        ARGFRAME ISTACK, 2, STACK
        ARGFRAME PSTACK, 0, STACK
        ARGFRAME XSTACK, 0, STACK
        ARGFRAME IOVERLAY, 0, STATIC
        ARGFRAME DOVERLAY, 0, STATIC
        FUNCALL DHT11, COM
        LOCFRAME ISTACK, 2, STACK
        LOCFRAME PSTACK, 0, STACK
        LOCFRAME XSTACK, 0, STACK
        LOCFRAME IOVERLAY, 0, STATIC
        LOCFRAME DOVERLAY, 0, STATIC
        ARGFRAME ISTACK, 2, STACK
        ARGFRAME PSTACK, 0, STACK
        ARGFRAME XSTACK, 0, STACK
        ARGFRAME IOVERLAY, 0, STATIC
        ARGFRAME DOVERLAY, 0, STATIC
        FUNCALL DHT11, COM
        LOCFRAME ISTACK, 2, STACK
        LOCFRAME PSTACK, 0, STACK
        LOCFRAME XSTACK, 0, STACK
        LOCFRAME IOVERLAY, 0, STATIC
        LOCFRAME DOVERLAY, 0, STATIC
        ARGFRAME ISTACK, 2, STACK
        ARGFRAME PSTACK, 0, STACK
        ARGFRAME XSTACK, 0, STACK
        ARGFRAME IOVERLAY, 0, STATIC
        ARGFRAME DOVERLAY, 0, STATIC
        FUNCALL DHT11, COM
        LOCFRAME ISTACK, 2, STACK
        LOCFRAME PSTACK, 0, STACK
        LOCFRAME XSTACK, 0, STACK
        LOCFRAME IOVERLAY, 0, STATIC
        LOCFRAME DOVERLAY, 0, STATIC
        ARGFRAME ISTACK, 2, STACK
        ARGFRAME PSTACK, 0, STACK
        ARGFRAME XSTACK, 0, STACK
        ARGFRAME IOVERLAY, 0, STATIC
        ARGFRAME DOVERLAY, 0, STATIC
        FUNCALL DHT11, COM
        LOCFRAME ISTACK, 2, STACK
        LOCFRAME PSTACK, 0, STACK
        LOCFRAME XSTACK, 0, STACK
        LOCFRAME IOVERLAY, 0, STATIC
        LOCFRAME DOVERLAY, 0, STATIC
        ARGFRAME ISTACK, 2, STACK
        ARGFRAME PSTACK, 0, STACK
        ARGFRAME XSTACK, 0, STACK
        ARGFRAME IOVERLAY, 0, STATIC
        ARGFRAME DOVERLAY, 0, STATIC
        PUSH    DPL
        CFI DPL0 Frame(CFA_SP, 4)
        CFI CFA_SP SP+-4
        PUSH    DPH
        CFI DPH0 Frame(CFA_SP, 5)
        CFI CFA_SP SP+-5
        ; Saved register size: 2
        ; Auto size: 0
//  124     DATA_PIN=0;//置低电平
        CLR     0x80.7
//  125     Delay_ms(19);  //>18MS
        ; Setup parameters for call to function Delay_ms
        MOV     R2,#0x13
        MOV     R3,#0x0
        LCALL   ??Delay_ms?relay
//  126     DATA_PIN=1; //置高电平，开始信号发送结束
        SETB    0x80.7
//  127     P0DIR &= ~0x80; //重新配置IO口方向，输入
        ANL     0xfd,#0x7f
//  128     Delay_10us();
        ; Setup parameters for call to function Onboard_wait
        LCALL   ?Subroutine2 & 0xFFFF
//  129     Delay_10us();                        
//  130     Delay_10us();
//  131     Delay_10us();  //高电平，延时40us等待
??CrossCallReturnLabel_1:
        ; Setup parameters for call to function Onboard_wait
        MOV     R2,#0xa
        MOV     R3,#0x0
        LCALL   ??Onboard_wait?relay
//  132     if(!DATA_PIN) //如果电平变低，则证明检测到开始信号
        MOV     C,0x80.7
        JNC     $+5
        LJMP    ??DHT11_0 & 0xFFFF
//  133     {
//  134         ucharFLAG=2; 
        MOV     DPTR,#ucharFLAG
        MOV     A,#0x2
        MOVX    @DPTR,A
//  135         while((!DATA_PIN)&&ucharFLAG++);//低电平，等待响应结束
??DHT11_1:
        MOV     C,0x80.7
        JC      ??DHT11_2
        LCALL   ?Subroutine4 & 0xFFFF
??CrossCallReturnLabel_8:
        JNZ     ??DHT11_1
//  136         ucharFLAG=2;
??DHT11_2:
        MOV     A,#0x2
        MOVX    @DPTR,A
//  137         while((DATA_PIN)&&ucharFLAG++); //高电平，准备输出
??DHT11_3:
        MOV     C,0x80.7
        JNC     ??DHT11_4
        LCALL   ?Subroutine4 & 0xFFFF
??CrossCallReturnLabel_9:
        JNZ     ??DHT11_3
//  138         COM();
??DHT11_4:
        ; Setup parameters for call to function COM
        LCALL   ??COM?relay
//  139         ucharRH_data_H_temp=ucharcomdata;//湿度高八位
        MOV     DPTR,#ucharcomdata
        MOVX    A,@DPTR
        MOV     DPTR,#ucharRH_data_H_temp
        LCALL   ?Subroutine3 & 0xFFFF
//  140         COM();
//  141         ucharRH_data_L_temp=ucharcomdata;//湿度低八位
??CrossCallReturnLabel_2:
        MOV     DPTR,#ucharRH_data_L_temp
        LCALL   ?Subroutine3 & 0xFFFF
//  142         COM();
//  143         ucharT_data_H_temp=ucharcomdata;//温度高八位
??CrossCallReturnLabel_3:
        MOV     DPTR,#ucharT_data_H_temp
        LCALL   ?Subroutine3 & 0xFFFF
//  144         COM();
//  145         ucharT_data_L_temp=ucharcomdata;//温度低八位
??CrossCallReturnLabel_4:
        MOV     DPTR,#ucharT_data_L_temp
        LCALL   ?Subroutine3 & 0xFFFF
//  146         COM();
//  147         ucharcheckdata_temp=ucharcomdata;//校验八位
??CrossCallReturnLabel_5:
        MOV     DPTR,#ucharcheckdata_temp
        MOVX    @DPTR,A
//  148         DATA_PIN=1; //置高，空闲状态
        SETB    0x80.7
//  149         uchartemp=(ucharT_data_H_temp+ucharT_data_L_temp+ucharRH_data_H_temp+ucharRH_data_L_temp);
        MOV     DPTR,#ucharRH_data_L_temp
        PUSH    DPL
        CFI CFA_SP SP+-6
        PUSH    DPH
        CFI CFA_SP SP+-7
        MOV     DPTR,#ucharRH_data_H_temp
        PUSH    DPL
        CFI CFA_SP SP+-8
        PUSH    DPH
        CFI CFA_SP SP+-9
        MOV     DPTR,#ucharT_data_L_temp
        PUSH    DPL
        CFI CFA_SP SP+-10
        MOV     DPTR,#ucharT_data_H_temp
        MOVX    A,@DPTR
        MOV     DPH,#(ucharT_data_L_temp >> 8) & 0xff
        POP     DPL
        CFI CFA_SP SP+-9
        MOV     R0,A
        MOVX    A,@DPTR
        ADD     A,R0
        POP     DPH
        CFI CFA_SP SP+-8
        POP     DPL
        CFI CFA_SP SP+-7
        MOV     R0,A
        MOVX    A,@DPTR
        ADD     A,R0
        POP     DPH
        CFI CFA_SP SP+-6
        POP     DPL
        CFI CFA_SP SP+-5
        MOV     R0,A
        MOVX    A,@DPTR
        ADD     A,R0
        MOV     DPTR,#uchartemp
        MOVX    @DPTR,A
//  150         if(uchartemp==ucharcheckdata_temp)//校验
        MOV     R0,A
        MOV     DPTR,#ucharcheckdata_temp
        MOVX    A,@DPTR
        XRL     A,R0
        JNZ     ??DHT11_5
//  151         {
//  152             ucharRH_data_H=ucharRH_data_H_temp;
        MOV     DPTR,#ucharRH_data_H_temp
        MOVX    A,@DPTR
        MOV     DPTR,#ucharRH_data_H
        MOVX    @DPTR,A
//  153             ucharRH_data_L=ucharRH_data_L_temp;
        MOV     DPTR,#ucharRH_data_L_temp
        MOVX    A,@DPTR
        MOV     DPTR,#ucharRH_data_L
        MOVX    @DPTR,A
//  154             ucharT_data_H=ucharT_data_H_temp;
        MOV     DPTR,#ucharT_data_H_temp
        MOVX    A,@DPTR
        MOV     DPTR,#ucharT_data_H
        MOVX    @DPTR,A
//  155             ucharT_data_L=ucharT_data_L_temp;
        MOV     DPTR,#ucharT_data_L_temp
        MOVX    A,@DPTR
        MOV     DPTR,#ucharT_data_L
        MOVX    @DPTR,A
//  156             ucharcheckdata=ucharcheckdata_temp;
        MOV     DPTR,#ucharcheckdata_temp
        MOVX    A,@DPTR
        MOV     DPTR,#ucharcheckdata
        MOVX    @DPTR,A
//  157         }
//  158         wendu_shi=ucharT_data_H/10; 
??DHT11_5:
        MOV     B,#0xa
        MOV     DPTR,#ucharT_data_H
        MOVX    A,@DPTR
        DIV     AB
        MOV     DPTR,#wendu_shi
        MOVX    @DPTR,A
//  159         wendu_ge=ucharT_data_H%10;
        MOV     DPTR,#ucharT_data_H
        MOVX    A,@DPTR
        MOV     B,#0xa
        DIV     AB
        MOV     A,B
        MOV     DPTR,#wendu_ge
        MOVX    @DPTR,A
//  160         
//  161         shidu_shi=ucharRH_data_H/10; 
        MOV     B,#0xa
        MOV     DPTR,#ucharRH_data_H
        MOVX    A,@DPTR
        DIV     AB
        MOV     DPTR,#shidu_shi
        MOVX    @DPTR,A
//  162         shidu_ge=ucharRH_data_H%10;        
        MOV     DPTR,#ucharRH_data_H
        MOVX    A,@DPTR
        MOV     B,#0xa
        DIV     AB
        MOV     A,B
        SJMP    ??DHT11_6
//  163     } 
//  164     else //没用成功读取，返回0
//  165     {
//  166         wendu_shi=0; 
??DHT11_0:
        MOV     DPTR,#wendu_shi
        CLR     A
        MOVX    @DPTR,A
//  167         wendu_ge=0;
        MOV     DPTR,#wendu_ge
        MOVX    @DPTR,A
//  168         
//  169         shidu_shi=0; 
        MOV     DPTR,#shidu_shi
        MOVX    @DPTR,A
//  170         shidu_ge=0;  
??DHT11_6:
        MOV     DPTR,#shidu_ge
        MOVX    @DPTR,A
//  171     } 
//  172     
//  173     P0DIR |= 0x80; //IO口需要重新配置 
        ORL     0xfd,#0x80
//  174 }
        LJMP    ??Subroutine5_0 & 0xFFFF
        CFI EndBlock cfiBlock7
        REQUIRE _A_P0
        REQUIRE P0DIR

        RSEG BANKED_CODE:CODE:NOROOT(0)
?Subroutine4:
        CFI Block cfiCond8 Using cfiCommon0
        CFI NoFunction
        CFI Conditional ??CrossCallReturnLabel_6
        CFI R6 load(1, XDATA, add(CFA_XSP16, literal(-9)))
        CFI VB load(1, XDATA, add(CFA_XSP16, literal(-8)))
        CFI V0 load(1, XDATA, add(CFA_XSP16, literal(-7)))
        CFI R7 load(1, XDATA, add(CFA_XSP16, literal(-6)))
        CFI ?RET_LOW load(1, XDATA, add(CFA_XSP16, literal(-5)))
        CFI ?RET_HIGH load(1, XDATA, add(CFA_XSP16, literal(-4)))
        CFI ?BRET_EXT load(1, XDATA, add(CFA_XSP16, literal(-3)))
        CFI DPL0 load(1, XDATA, add(CFA_XSP16, literal(-2)))
        CFI DPH0 load(1, XDATA, add(CFA_XSP16, literal(-1)))
        CFI CFA_SP SP+0
        CFI CFA_XSP16 add(XSP16, 9)
        CFI Block cfiCond9 Using cfiCommon0
        CFI (cfiCond9) NoFunction
        CFI (cfiCond9) Conditional ??CrossCallReturnLabel_7
        CFI (cfiCond9) R6 load(1, XDATA, add(CFA_XSP16, literal(-9)))
        CFI (cfiCond9) VB load(1, XDATA, add(CFA_XSP16, literal(-8)))
        CFI (cfiCond9) V0 load(1, XDATA, add(CFA_XSP16, literal(-7)))
        CFI (cfiCond9) R7 load(1, XDATA, add(CFA_XSP16, literal(-6)))
        CFI (cfiCond9) ?RET_LOW load(1, XDATA, add(CFA_XSP16, literal(-5)))
        CFI (cfiCond9) ?RET_HIGH load(1, XDATA, add(CFA_XSP16, literal(-4)))
        CFI (cfiCond9) ?BRET_EXT load(1, XDATA, add(CFA_XSP16, literal(-3)))
        CFI (cfiCond9) DPL0 load(1, XDATA, add(CFA_XSP16, literal(-2)))
        CFI (cfiCond9) DPH0 load(1, XDATA, add(CFA_XSP16, literal(-1)))
        CFI (cfiCond9) CFA_SP SP+0
        CFI (cfiCond9) CFA_XSP16 add(XSP16, 9)
        CFI Block cfiCond10 Using cfiCommon0
        CFI (cfiCond10) NoFunction
        CFI (cfiCond10) Conditional ??CrossCallReturnLabel_8
        CFI (cfiCond10) DPL0 Frame(CFA_SP, 4)
        CFI (cfiCond10) DPH0 Frame(CFA_SP, 5)
        CFI (cfiCond10) CFA_SP SP+-5
        CFI Block cfiCond11 Using cfiCommon0
        CFI (cfiCond11) NoFunction
        CFI (cfiCond11) Conditional ??CrossCallReturnLabel_9
        CFI (cfiCond11) DPL0 Frame(CFA_SP, 4)
        CFI (cfiCond11) DPH0 Frame(CFA_SP, 5)
        CFI (cfiCond11) CFA_SP SP+-5
        CFI Block cfiPicker12 Using cfiCommon1
        CFI (cfiPicker12) NoFunction
        CFI (cfiPicker12) Picker
        MOVX    A,@DPTR
        MOV     R0,A
        MOV     A,#0x1
        ADD     A,R0
        MOVX    @DPTR,A
        MOV     A,R0
        RET
        CFI EndBlock cfiCond8
        CFI EndBlock cfiCond9
        CFI EndBlock cfiCond10
        CFI EndBlock cfiCond11
        CFI EndBlock cfiPicker12

        RSEG BANKED_CODE:CODE:NOROOT(0)
?Subroutine3:
        CFI Block cfiCond13 Using cfiCommon0
        CFI NoFunction
        CFI Conditional ??CrossCallReturnLabel_2
        CFI DPL0 Frame(CFA_SP, 4)
        CFI DPH0 Frame(CFA_SP, 5)
        CFI CFA_SP SP+-5
        CFI Block cfiCond14 Using cfiCommon0
        CFI (cfiCond14) NoFunction
        CFI (cfiCond14) Conditional ??CrossCallReturnLabel_3
        CFI (cfiCond14) DPL0 Frame(CFA_SP, 4)
        CFI (cfiCond14) DPH0 Frame(CFA_SP, 5)
        CFI (cfiCond14) CFA_SP SP+-5
        CFI Block cfiCond15 Using cfiCommon0
        CFI (cfiCond15) NoFunction
        CFI (cfiCond15) Conditional ??CrossCallReturnLabel_4
        CFI (cfiCond15) DPL0 Frame(CFA_SP, 4)
        CFI (cfiCond15) DPH0 Frame(CFA_SP, 5)
        CFI (cfiCond15) CFA_SP SP+-5
        CFI Block cfiCond16 Using cfiCommon0
        CFI (cfiCond16) NoFunction
        CFI (cfiCond16) Conditional ??CrossCallReturnLabel_5
        CFI (cfiCond16) DPL0 Frame(CFA_SP, 4)
        CFI (cfiCond16) DPH0 Frame(CFA_SP, 5)
        CFI (cfiCond16) CFA_SP SP+-5
        CFI Block cfiPicker17 Using cfiCommon1
        CFI (cfiPicker17) NoFunction
        CFI (cfiPicker17) Picker
        MOVX    @DPTR,A
        ; Setup parameters for call to function COM
        ; Setup parameters for call to function COM
        ; Setup parameters for call to function COM
        ; Setup parameters for call to function COM
        LCALL   ??COM?relay
        MOV     DPTR,#ucharcomdata
        MOVX    A,@DPTR
        RET
        CFI EndBlock cfiCond13
        CFI EndBlock cfiCond14
        CFI EndBlock cfiCond15
        CFI EndBlock cfiCond16
        CFI EndBlock cfiPicker17

        RSEG BANKED_CODE:CODE:NOROOT(0)
?Subroutine2:
        CFI Block cfiCond18 Using cfiCommon0
        CFI NoFunction
        CFI Conditional ??CrossCallReturnLabel_0
        CFI R6 load(1, XDATA, add(CFA_XSP16, literal(-9)))
        CFI VB load(1, XDATA, add(CFA_XSP16, literal(-8)))
        CFI V0 load(1, XDATA, add(CFA_XSP16, literal(-7)))
        CFI R7 load(1, XDATA, add(CFA_XSP16, literal(-6)))
        CFI ?RET_LOW load(1, XDATA, add(CFA_XSP16, literal(-5)))
        CFI ?RET_HIGH load(1, XDATA, add(CFA_XSP16, literal(-4)))
        CFI ?BRET_EXT load(1, XDATA, add(CFA_XSP16, literal(-3)))
        CFI DPL0 load(1, XDATA, add(CFA_XSP16, literal(-2)))
        CFI DPH0 load(1, XDATA, add(CFA_XSP16, literal(-1)))
        CFI CFA_SP SP+0
        CFI CFA_XSP16 add(XSP16, 9)
        CFI Block cfiCond19 Using cfiCommon0
        CFI (cfiCond19) NoFunction
        CFI (cfiCond19) Conditional ??CrossCallReturnLabel_1
        CFI (cfiCond19) DPL0 Frame(CFA_SP, 4)
        CFI (cfiCond19) DPH0 Frame(CFA_SP, 5)
        CFI (cfiCond19) CFA_SP SP+-5
        CFI Block cfiPicker20 Using cfiCommon1
        CFI (cfiPicker20) NoFunction
        CFI (cfiPicker20) Picker
        MOV     R2,#0xa
        MOV     R3,#0x0
        LCALL   ??Onboard_wait?relay
        ; Setup parameters for call to function Onboard_wait
        ; Setup parameters for call to function Onboard_wait
        MOV     R2,#0xa
        MOV     R3,#0x0
        LCALL   ??Onboard_wait?relay
        ; Setup parameters for call to function Onboard_wait
        ; Setup parameters for call to function Onboard_wait
        MOV     R2,#0xa
        MOV     R3,#0x0
        LCALL   ??Onboard_wait?relay
        RET
        CFI EndBlock cfiCond18
        CFI EndBlock cfiCond19
        CFI EndBlock cfiPicker20
//  175 
//  176 

        RSEG BANKED_CODE:CODE:NOROOT(0)
//  177 void GenericApp_Init( uint8 task_id )
GenericApp_Init:
        CFI Block cfiBlock21 Using cfiCommon0
        CFI Function GenericApp_Init
        CODE
//  178 {
        FUNCALL GenericApp_Init, afRegister
        LOCFRAME ISTACK, 0, STACK
        LOCFRAME PSTACK, 0, STACK
        LOCFRAME XSTACK, 38, STACK
        LOCFRAME IOVERLAY, 0, STATIC
        LOCFRAME DOVERLAY, 0, STATIC
        ARGFRAME ISTACK, 0, STACK
        ARGFRAME PSTACK, 0, STACK
        ARGFRAME XSTACK, 38, STACK
        ARGFRAME IOVERLAY, 0, STATIC
        ARGFRAME DOVERLAY, 0, STATIC
        FUNCALL GenericApp_Init, HalUARTOpen
        LOCFRAME ISTACK, 0, STACK
        LOCFRAME PSTACK, 0, STACK
        LOCFRAME XSTACK, 38, STACK
        LOCFRAME IOVERLAY, 0, STATIC
        LOCFRAME DOVERLAY, 0, STATIC
        ARGFRAME ISTACK, 0, STACK
        ARGFRAME PSTACK, 0, STACK
        ARGFRAME XSTACK, 38, STACK
        ARGFRAME IOVERLAY, 0, STATIC
        ARGFRAME DOVERLAY, 0, STATIC
        MOV     A,#-0x9
        LCALL   ?BANKED_ENTER_XDATA
        CFI DPH0 load(1, XDATA, add(CFA_XSP16, literal(-1)))
        CFI DPL0 load(1, XDATA, add(CFA_XSP16, literal(-2)))
        CFI ?BRET_EXT load(1, XDATA, add(CFA_XSP16, literal(-3)))
        CFI ?RET_HIGH load(1, XDATA, add(CFA_XSP16, literal(-4)))
        CFI ?RET_LOW load(1, XDATA, add(CFA_XSP16, literal(-5)))
        CFI R7 load(1, XDATA, add(CFA_XSP16, literal(-6)))
        CFI V0 load(1, XDATA, add(CFA_XSP16, literal(-7)))
        CFI VB load(1, XDATA, add(CFA_XSP16, literal(-8)))
        CFI R6 load(1, XDATA, add(CFA_XSP16, literal(-9)))
        CFI CFA_SP SP+0
        CFI CFA_XSP16 add(XSP16, 9)
        ; Saved register size: 9
        ; Auto size: 29
        MOV     A,#-0x1d
        LCALL   ?ALLOC_XSTACK8
        CFI CFA_XSP16 add(XSP16, 38)
        MOV     A,R1
//  179    halUARTCfg_t uartConfig;
//  180   GenericApp_TaskID = task_id;
        MOV     DPTR,#GenericApp_TaskID
        MOVX    @DPTR,A
//  181   GenericApp_NwkState=DEV_INIT;
        MOV     DPTR,#GenericApp_NwkState
        MOV     A,#0x1
        MOVX    @DPTR,A
//  182   GenericApp_TransID = 0;
        MOV     DPTR,#GenericApp_TransID
        CLR     A
        MOVX    @DPTR,A
//  183  
//  184   // Fill out the endpoint description.
//  185   GenericApp_epDesc.endPoint = GENERICAPP_ENDPOINT;
        MOV     DPTR,#GenericApp_epDesc
        MOV     A,#0xa
        MOVX    @DPTR,A
//  186   GenericApp_epDesc.task_id = &GenericApp_TaskID;
        INC     DPTR
        MOV     A,#GenericApp_TaskID & 0xff
        MOVX    @DPTR,A
        INC     DPTR
        MOV     A,#(GenericApp_TaskID >> 8) & 0xff
        MOVX    @DPTR,A
//  187   GenericApp_epDesc.simpleDesc
//  188             = (SimpleDescriptionFormat_t *)&GenericApp_SimpleDesc;
        INC     DPTR
        MOV     A,#GenericApp_SimpleDesc & 0xff
        MOVX    @DPTR,A
        INC     DPTR
        MOV     A,#(GenericApp_SimpleDesc >> 8) & 0xff
        MOVX    @DPTR,A
//  189   GenericApp_epDesc.latencyReq = noLatencyReqs;
        INC     DPTR
        CLR     A
        MOVX    @DPTR,A
//  190   afRegister( &GenericApp_epDesc );
        ; Setup parameters for call to function afRegister
        MOV     R2,#GenericApp_epDesc & 0xff
        MOV     R3,#(GenericApp_epDesc >> 8) & 0xff
        LCALL   ??afRegister?relay
//  191   
//  192   uartConfig.configured=TRUE;
        MOV     DPL,?XSP + 0
        MOV     DPH,?XSP + 1
        MOV     A,#0x1
        MOVX    @DPTR,A
//  193   uartConfig.baudRate=HAL_UART_BR_9600;
        LCALL   ?XSTACK_DISP0_8
        CLR     A
        MOVX    @DPTR,A
//  194   uartConfig.flowControl=FALSE;
        MOV     A,#0x2
        LCALL   ?XSTACK_DISP0_8
        CLR     A
        MOVX    @DPTR,A
//  195   uartConfig.callBackFunc=NULL;
        MOV     A,#0x1b
        LCALL   ?XSTACK_DISP0_8
        CLR     A
        MOVX    @DPTR,A
        INC     DPTR
        MOVX    @DPTR,A
//  196   HalUARTOpen (0,&uartConfig);
        ; Setup parameters for call to function HalUARTOpen
        MOV     DPL,?XSP + 0
        MOV     DPH,?XSP + 1
        MOV     R2,DPL
        MOV     R3,DPH
        MOV     R1,A
        LCALL   ??HalUARTOpen?relay
//  197   
//  198 }
        MOV     A,#0x1d
        LCALL   ?DEALLOC_XSTACK8
        CFI CFA_XSP16 add(XSP16, 9)
        LJMP    ?Subroutine1 & 0xFFFF
        CFI EndBlock cfiBlock21
//  199 
//  200 
//  201 static void rxCB(uint8 port,uint8 event)
//  202 {  //HalLedBlink(HAL_LED_2,0,50,500);
//  203   HalUARTRead(0,uartbuf,9);
//  204  
//  205   GenericApp_SendTheMessage();
//  206   //HalLedBlink(HAL_LED_2,0,50,500);
//  207 }
//  208 
//  209 

        RSEG BANKED_CODE:CODE:NOROOT(0)
//  210 uint16 GenericApp_ProcessEvent( uint8 task_id, uint16 events )
GenericApp_ProcessEvent:
        CFI Block cfiBlock22 Using cfiCommon0
        CFI Function GenericApp_ProcessEvent
        CODE
//  211 {
        FUNCALL GenericApp_ProcessEvent, osal_msg_receive
        LOCFRAME ISTACK, 0, STACK
        LOCFRAME PSTACK, 0, STACK
        LOCFRAME XSTACK, 12, STACK
        LOCFRAME IOVERLAY, 0, STATIC
        LOCFRAME DOVERLAY, 0, STATIC
        ARGFRAME ISTACK, 0, STACK
        ARGFRAME PSTACK, 0, STACK
        ARGFRAME XSTACK, 12, STACK
        ARGFRAME IOVERLAY, 0, STATIC
        ARGFRAME DOVERLAY, 0, STATIC
        FUNCALL GenericApp_ProcessEvent, GenericApp_MessageMSGCB
        LOCFRAME ISTACK, 0, STACK
        LOCFRAME PSTACK, 0, STACK
        LOCFRAME XSTACK, 12, STACK
        LOCFRAME IOVERLAY, 0, STATIC
        LOCFRAME DOVERLAY, 0, STATIC
        ARGFRAME ISTACK, 0, STACK
        ARGFRAME PSTACK, 0, STACK
        ARGFRAME XSTACK, 12, STACK
        ARGFRAME IOVERLAY, 0, STATIC
        ARGFRAME DOVERLAY, 0, STATIC
        FUNCALL GenericApp_ProcessEvent, osal_msg_deallocate
        LOCFRAME ISTACK, 0, STACK
        LOCFRAME PSTACK, 0, STACK
        LOCFRAME XSTACK, 12, STACK
        LOCFRAME IOVERLAY, 0, STATIC
        LOCFRAME DOVERLAY, 0, STATIC
        ARGFRAME ISTACK, 0, STACK
        ARGFRAME PSTACK, 0, STACK
        ARGFRAME XSTACK, 12, STACK
        ARGFRAME IOVERLAY, 0, STATIC
        ARGFRAME DOVERLAY, 0, STATIC
        FUNCALL GenericApp_ProcessEvent, osal_msg_receive
        LOCFRAME ISTACK, 0, STACK
        LOCFRAME PSTACK, 0, STACK
        LOCFRAME XSTACK, 12, STACK
        LOCFRAME IOVERLAY, 0, STATIC
        LOCFRAME DOVERLAY, 0, STATIC
        ARGFRAME ISTACK, 0, STACK
        ARGFRAME PSTACK, 0, STACK
        ARGFRAME XSTACK, 12, STACK
        ARGFRAME IOVERLAY, 0, STATIC
        ARGFRAME DOVERLAY, 0, STATIC
        FUNCALL GenericApp_ProcessEvent, GenericApp_SendTheMessage
        LOCFRAME ISTACK, 0, STACK
        LOCFRAME PSTACK, 0, STACK
        LOCFRAME XSTACK, 12, STACK
        LOCFRAME IOVERLAY, 0, STATIC
        LOCFRAME DOVERLAY, 0, STATIC
        ARGFRAME ISTACK, 0, STACK
        ARGFRAME PSTACK, 0, STACK
        ARGFRAME XSTACK, 12, STACK
        ARGFRAME IOVERLAY, 0, STATIC
        ARGFRAME DOVERLAY, 0, STATIC
        FUNCALL GenericApp_ProcessEvent, osal_start_timerEx
        LOCFRAME ISTACK, 0, STACK
        LOCFRAME PSTACK, 0, STACK
        LOCFRAME XSTACK, 12, STACK
        LOCFRAME IOVERLAY, 0, STATIC
        LOCFRAME DOVERLAY, 0, STATIC
        ARGFRAME ISTACK, 0, STACK
        ARGFRAME PSTACK, 0, STACK
        ARGFRAME XSTACK, 12, STACK
        ARGFRAME IOVERLAY, 0, STATIC
        ARGFRAME DOVERLAY, 0, STATIC
        MOV     A,#-0xc
        LCALL   ?BANKED_ENTER_XDATA
        CFI DPH0 load(1, XDATA, add(CFA_XSP16, literal(-1)))
        CFI DPL0 load(1, XDATA, add(CFA_XSP16, literal(-2)))
        CFI ?BRET_EXT load(1, XDATA, add(CFA_XSP16, literal(-3)))
        CFI ?RET_HIGH load(1, XDATA, add(CFA_XSP16, literal(-4)))
        CFI ?RET_LOW load(1, XDATA, add(CFA_XSP16, literal(-5)))
        CFI R7 load(1, XDATA, add(CFA_XSP16, literal(-6)))
        CFI V3 load(1, XDATA, add(CFA_XSP16, literal(-7)))
        CFI V2 load(1, XDATA, add(CFA_XSP16, literal(-8)))
        CFI V1 load(1, XDATA, add(CFA_XSP16, literal(-9)))
        CFI V0 load(1, XDATA, add(CFA_XSP16, literal(-10)))
        CFI VB load(1, XDATA, add(CFA_XSP16, literal(-11)))
        CFI R6 load(1, XDATA, add(CFA_XSP16, literal(-12)))
        CFI CFA_SP SP+0
        CFI CFA_XSP16 add(XSP16, 12)
        ; Saved register size: 12
        ; Auto size: 0
        MOV     ?V0 + 0,R2
        MOV     ?V0 + 1,R3
//  212  afIncomingMSGPacket_t *MSGpkt;
//  213  
//  214   if ( events & SYS_EVENT_MSG )
        MOV     A,R3
        ANL     A,#0x80
        JZ      ??GenericApp_ProcessEvent_0
//  215   {
//  216     MSGpkt = (afIncomingMSGPacket_t *)osal_msg_receive( GenericApp_TaskID );
        ; Setup parameters for call to function osal_msg_receive
        SJMP    ??GenericApp_ProcessEvent_1
//  217    
//  218     while ( MSGpkt )
//  219     {
//  220       switch ( MSGpkt->hdr.event )
??GenericApp_ProcessEvent_2:
        MOV     DPL,R6
        MOV     DPH,R7
        MOVX    A,@DPTR
        XRL     A,#0x1a
        JNZ     ??GenericApp_ProcessEvent_3
//  221       {
//  222       
//  223       case AF_INCOMING_MSG_CMD:
//  224            GenericApp_MessageMSGCB(MSGpkt);
        ; Setup parameters for call to function GenericApp_MessageMSGCB
        MOV     A,R6
        MOV     R2,A
        MOV     A,R7
        MOV     R3,A
        LCALL   ??GenericApp_MessageMSGCB?relay
//  225            break;
//  226        /*case ZDO_STATE_CHANGE:
//  227           GenericApp_NwkState = (devStates_t)(MSGpkt->hdr.status);
//  228           if ( GenericApp_NwkState == DEV_END_DEVICE||
//  229               GenericApp_NwkState == DEV_ROUTER||
//  230                 GenericApp_NwkState == DEV_ZB_COORD)
//  231              
//  232           {  
//  233             
//  234             osal_set_event(GenericApp_TaskID,SEND_DATA_EVENT);
//  235             
//  236             
//  237             //GenericApp_SendTheMessage();
//  238             
//  239           }
//  240            */
//  241           break;
//  242         default:
//  243           break;
//  244         
//  245       }
//  246       // Release the memory
//  247       osal_msg_deallocate( (uint8 *)MSGpkt );
??GenericApp_ProcessEvent_3:
        ; Setup parameters for call to function osal_msg_deallocate
        MOV     A,R6
        MOV     R2,A
        MOV     A,R7
        MOV     R3,A
        LCALL   ??osal_msg_deallocate?relay
//  248       // Next
//  249       MSGpkt = (afIncomingMSGPacket_t *)osal_msg_receive( GenericApp_TaskID );
        ; Setup parameters for call to function osal_msg_receive
??GenericApp_ProcessEvent_1:
        MOV     DPTR,#GenericApp_TaskID
        MOVX    A,@DPTR
        MOV     R1,A
        LCALL   ??osal_msg_receive?relay
        MOV     ?V0 + 2,R2
        MOV     ?V0 + 3,R3
        MOV     R6,?V0 + 2
        MOV     R7,?V0 + 3
//  250     }
        MOV     A,R6
        ORL     A,R7
        JNZ     ??GenericApp_ProcessEvent_2
//  251     // return unprocessed events
//  252     return (events ^ SYS_EVENT_MSG);
        MOV     R2,?V0 + 0
        MOV     A,?V0 + 1
        XRL     A,#0x80
        MOV     R3,A
        SJMP    ??GenericApp_ProcessEvent_4
//  253   }
//  254   if(events &SEND_DATA_EVENT )
??GenericApp_ProcessEvent_0:
        MOV     A,R2
        MOV     C,0xE0 /* A   */.0
        JNC     ??GenericApp_ProcessEvent_5
//  255   {
//  256     GenericApp_SendTheMessage();
        ; Setup parameters for call to function GenericApp_SendTheMessage
        LCALL   ??GenericApp_SendTheMessage?relay
//  257      osal_start_timerEx(GenericApp_TaskID,SEND_DATA_EVENT,3000);
        ; Setup parameters for call to function osal_start_timerEx
        MOV     R4,#-0x48
        MOV     R5,#0xb
        MOV     R2,#0x1
        MOV     R3,#0x0
        MOV     DPTR,#GenericApp_TaskID
        MOVX    A,@DPTR
        MOV     R1,A
        LCALL   ??osal_start_timerEx?relay
//  258     return (events ^ SEND_DATA_EVENT);
        MOV     A,?V0 + 0
        XRL     A,#0x1
        MOV     R2,A
        MOV     R3,?V0 + 1
        SJMP    ??GenericApp_ProcessEvent_4
//  259   }
//  260  
//  261  return 0;
??GenericApp_ProcessEvent_5:
        MOV     R2,#0x0
        MOV     R3,#0x0
??GenericApp_ProcessEvent_4:
        MOV     R7,#0x4
        LJMP    ?BANKED_LEAVE_XDATA
        CFI EndBlock cfiBlock22
//  262  
//  263   
//  264   /* afIncomingMSGPacket_t *MSGpkt;    //设置一个指针
//  265   if ( events & SYS_EVENT_MSG )           //events 已经发生的事件    SYS_EVENT_MSG 系统事件
//  266   {
//  267     MSGpkt = (afIncomingMSGPacket_t *)osal_msg_receive( GenericApp_TaskID );   //取事件
//  268     while ( MSGpkt )
//  269     {
//  270       switch ( MSGpkt->hdr.event )
//  271       {
//  272        
//  273         // Received when a messages is received (OTA) for this endpoint
//  274         case AF_INCOMING_MSG_CMD:
//  275           GenericApp_MessageMSGCB( MSGpkt );
//  276           break;
//  277   
//  278         default:
//  279           break;
//  280       }
//  281    osal_msg_deallocate( (uint8 *)MSGpkt );
//  282       // Next - if one is available
//  283       MSGpkt = (afIncomingMSGPacket_t *)osal_msg_receive( GenericApp_TaskID );
//  284     }
//  285     // return unprocessed events
//  286     return (events ^ SYS_EVENT_MSG);
//  287   }
//  288  return 0;
//  289  
//  290  */
//  291 }
//  292  

        RSEG BANKED_CODE:CODE:NOROOT(0)
//  293  void GenericApp_SendTheMessage( void )
GenericApp_SendTheMessage:
        CFI Block cfiBlock23 Using cfiCommon0
        CFI Function GenericApp_SendTheMessage
        CODE
//  294 {
        FUNCALL GenericApp_SendTheMessage, DHT11
        LOCFRAME ISTACK, 0, STACK
        LOCFRAME PSTACK, 0, STACK
        LOCFRAME XSTACK, 22, STACK
        LOCFRAME IOVERLAY, 0, STATIC
        LOCFRAME DOVERLAY, 0, STATIC
        ARGFRAME ISTACK, 0, STACK
        ARGFRAME PSTACK, 0, STACK
        ARGFRAME XSTACK, 22, STACK
        ARGFRAME IOVERLAY, 0, STATIC
        ARGFRAME DOVERLAY, 0, STATIC
        FUNCALL GenericApp_SendTheMessage, AF_DataRequest
        LOCFRAME ISTACK, 0, STACK
        LOCFRAME PSTACK, 0, STACK
        LOCFRAME XSTACK, 31, STACK
        LOCFRAME IOVERLAY, 0, STATIC
        LOCFRAME DOVERLAY, 0, STATIC
        ARGFRAME ISTACK, 0, STACK
        ARGFRAME PSTACK, 0, STACK
        ARGFRAME XSTACK, 31, STACK
        ARGFRAME IOVERLAY, 0, STATIC
        ARGFRAME DOVERLAY, 0, STATIC
        FUNCALL GenericApp_SendTheMessage, HalLedBlink
        LOCFRAME ISTACK, 0, STACK
        LOCFRAME PSTACK, 0, STACK
        LOCFRAME XSTACK, 22, STACK
        LOCFRAME IOVERLAY, 0, STATIC
        LOCFRAME DOVERLAY, 0, STATIC
        ARGFRAME ISTACK, 0, STACK
        ARGFRAME PSTACK, 0, STACK
        ARGFRAME XSTACK, 22, STACK
        ARGFRAME IOVERLAY, 0, STATIC
        ARGFRAME DOVERLAY, 0, STATIC
        MOV     A,#-0xa
        LCALL   ?BANKED_ENTER_XDATA
        CFI DPH0 load(1, XDATA, add(CFA_XSP16, literal(-1)))
        CFI DPL0 load(1, XDATA, add(CFA_XSP16, literal(-2)))
        CFI ?BRET_EXT load(1, XDATA, add(CFA_XSP16, literal(-3)))
        CFI ?RET_HIGH load(1, XDATA, add(CFA_XSP16, literal(-4)))
        CFI ?RET_LOW load(1, XDATA, add(CFA_XSP16, literal(-5)))
        CFI R7 load(1, XDATA, add(CFA_XSP16, literal(-6)))
        CFI V1 load(1, XDATA, add(CFA_XSP16, literal(-7)))
        CFI V0 load(1, XDATA, add(CFA_XSP16, literal(-8)))
        CFI VB load(1, XDATA, add(CFA_XSP16, literal(-9)))
        CFI R6 load(1, XDATA, add(CFA_XSP16, literal(-10)))
        CFI CFA_SP SP+0
        CFI CFA_XSP16 add(XSP16, 10)
        ; Saved register size: 10
        ; Auto size: 12
        MOV     A,#-0xc
        LCALL   ?ALLOC_XSTACK8
        CFI CFA_XSP16 add(XSP16, 22)
//  295 
//  296   // HalLedBlink(HAL_LED_2,0,50,500);
//  297  DHT11();
        ; Setup parameters for call to function DHT11
        LCALL   ??DHT11?relay
//  298  //Delay_ms(500);
//  299  wen[0]=wendu_shi+0x30;
        MOV     DPTR,#wendu_shi
        MOVX    A,@DPTR
        ADD     A,#0x30
        MOV     DPTR,#wen
        MOVX    @DPTR,A
//  300  wen[1]=wendu_ge+0x30;
        MOV     DPTR,#wendu_ge
        MOVX    A,@DPTR
        ADD     A,#0x30
        MOV     DPTR,#wen + 1
        MOVX    @DPTR,A
//  301  //char aaa[3]='1';
//  302 
//  303  wen[2]=':';
        INC     DPTR
        MOV     A,#0x3a
        MOVX    @DPTR,A
//  304  wen[3]=shidu_shi+0x30;
        MOV     DPTR,#shidu_shi
        MOVX    A,@DPTR
        ADD     A,#0x30
        MOV     DPTR,#wen + 3
        MOVX    @DPTR,A
//  305  wen[4]=shidu_ge+0x30;
        MOV     DPTR,#shidu_ge
        MOVX    A,@DPTR
        ADD     A,#0x30
        MOV     DPTR,#wen + 4
        MOVX    @DPTR,A
//  306  
//  307  afAddrType_t my_DstAddr;
//  308  my_DstAddr.addrMode=(afAddrMode_t)Addr16Bit;
        MOV     A,#0x8
        LCALL   ?XSTACK_DISP0_8
        MOV     A,#0x2
        MOVX    @DPTR,A
//  309  my_DstAddr.endPoint=GENERICAPP_ENDPOINT;
        MOV     A,#0x9
        LCALL   ?XSTACK_DISP0_8
        MOV     A,#0xa
        MOVX    @DPTR,A
//  310  my_DstAddr.addr.shortAddr=0x0000;
        MOV     DPL,?XSP + 0
        MOV     DPH,?XSP + 1
        CLR     A
        MOVX    @DPTR,A
        INC     DPTR
        MOVX    @DPTR,A
//  311  
//  312  AF_DataRequest( &my_DstAddr, &GenericApp_epDesc,
//  313                        GENERICAPP_CLUSTERID,
//  314                        5,
//  315                        wen,
//  316                        &GenericApp_TransID,
//  317                        AF_DISCV_ROUTE, AF_DEFAULT_RADIUS);
        ; Setup parameters for call to function AF_DataRequest
        MOV     ?V0 + 0,#0x1e
        MOV     R0,#?V0 + 0
        LCALL   ?PUSH_XSTACK_I_ONE
        CFI CFA_XSP16 add(XSP16, 23)
        MOV     ?V0 + 0,#GenericApp_TransID & 0xff
        MOV     ?V0 + 1,#(GenericApp_TransID >> 8) & 0xff
        MOV     R0,#?V0 + 0
        LCALL   ?PUSH_XSTACK_I_TWO
        CFI CFA_XSP16 add(XSP16, 25)
        MOV     ?V0 + 0,#wen & 0xff
        MOV     ?V0 + 1,#(wen >> 8) & 0xff
        MOV     R0,#?V0 + 0
        LCALL   ?PUSH_XSTACK_I_TWO
        CFI CFA_XSP16 add(XSP16, 27)
        MOV     ?V0 + 0,#0x5
        MOV     ?V0 + 1,#0x0
        MOV     R0,#?V0 + 0
        LCALL   ?PUSH_XSTACK_I_TWO
        CFI CFA_XSP16 add(XSP16, 29)
        MOV     ?V0 + 0,#0x1
        MOV     R0,#?V0 + 0
        LCALL   ?PUSH_XSTACK_I_TWO
        CFI CFA_XSP16 add(XSP16, 31)
        MOV     R1,#0x20
        MOV     R4,#GenericApp_epDesc & 0xff
        MOV     R5,#(GenericApp_epDesc >> 8) & 0xff
        MOV     A,#0x9
        LCALL   ?XSTACK_DISP0_8
        MOV     R2,DPL
        MOV     R3,DPH
        LCALL   ??AF_DataRequest?relay
        MOV     A,#0x9
        LCALL   ?DEALLOC_XSTACK8
        CFI CFA_XSP16 add(XSP16, 22)
//  318  
//  319     HalLedBlink(HAL_LED_2,0,50,500);
        ; Setup parameters for call to function HalLedBlink
        MOV     R4,#-0xc
        MOV     R5,#0x1
        MOV     R3,#0x32
        MOV     R2,#0x0
        MOV     R1,#0x2
        LCALL   ??HalLedBlink?relay
//  320      // Delay_ms(1000);
//  321 }
        MOV     A,#0xc
        LCALL   ?DEALLOC_XSTACK8
        CFI CFA_XSP16 add(XSP16, 10)
        MOV     R7,#0x2
        LJMP    ?BANKED_LEAVE_XDATA
        CFI EndBlock cfiBlock23
//  322  
//  323 
//  324 

        RSEG BANKED_CODE:CODE:NOROOT(0)
//  325 void GenericApp_MessageMSGCB(afIncomingMSGPacket_t *pkt)
GenericApp_MessageMSGCB:
        CFI Block cfiBlock24 Using cfiCommon0
        CFI Function GenericApp_MessageMSGCB
        CODE
//  326 {
        FUNCALL GenericApp_MessageMSGCB, osal_memcpy
        LOCFRAME ISTACK, 0, STACK
        LOCFRAME PSTACK, 0, STACK
        LOCFRAME XSTACK, 16, STACK
        LOCFRAME IOVERLAY, 0, STATIC
        LOCFRAME DOVERLAY, 0, STATIC
        ARGFRAME ISTACK, 0, STACK
        ARGFRAME PSTACK, 0, STACK
        ARGFRAME XSTACK, 16, STACK
        ARGFRAME IOVERLAY, 0, STATIC
        ARGFRAME DOVERLAY, 0, STATIC
        FUNCALL GenericApp_MessageMSGCB, HalLedBlink
        LOCFRAME ISTACK, 0, STACK
        LOCFRAME PSTACK, 0, STACK
        LOCFRAME XSTACK, 13, STACK
        LOCFRAME IOVERLAY, 0, STATIC
        LOCFRAME DOVERLAY, 0, STATIC
        ARGFRAME ISTACK, 0, STACK
        ARGFRAME PSTACK, 0, STACK
        ARGFRAME XSTACK, 13, STACK
        ARGFRAME IOVERLAY, 0, STATIC
        ARGFRAME DOVERLAY, 0, STATIC
        MOV     A,#-0xb
        LCALL   ?BANKED_ENTER_XDATA
        CFI DPH0 load(1, XDATA, add(CFA_XSP16, literal(-1)))
        CFI DPL0 load(1, XDATA, add(CFA_XSP16, literal(-2)))
        CFI ?BRET_EXT load(1, XDATA, add(CFA_XSP16, literal(-3)))
        CFI ?RET_HIGH load(1, XDATA, add(CFA_XSP16, literal(-4)))
        CFI ?RET_LOW load(1, XDATA, add(CFA_XSP16, literal(-5)))
        CFI R7 load(1, XDATA, add(CFA_XSP16, literal(-6)))
        CFI V2 load(1, XDATA, add(CFA_XSP16, literal(-7)))
        CFI V1 load(1, XDATA, add(CFA_XSP16, literal(-8)))
        CFI V0 load(1, XDATA, add(CFA_XSP16, literal(-9)))
        CFI VB load(1, XDATA, add(CFA_XSP16, literal(-10)))
        CFI R6 load(1, XDATA, add(CFA_XSP16, literal(-11)))
        CFI CFA_SP SP+0
        CFI CFA_XSP16 add(XSP16, 11)
        ; Saved register size: 11
        ; Auto size: 2
        MOV     A,#-0x2
        LCALL   ?ALLOC_XSTACK8
        CFI CFA_XSP16 add(XSP16, 13)
//  327  unsigned char buffer[2];
//  328  switch(pkt->clusterId)
        MOV     DPL,R2
        MOV     DPH,R3
        INC     DPTR
        INC     DPTR
        INC     DPTR
        INC     DPTR
        MOVX    A,@DPTR
        XRL     A,#0x1
        JNZ     ??GenericApp_MessageMSGCB_0
        INC     DPTR
        MOVX    A,@DPTR
??GenericApp_MessageMSGCB_0:
        JNZ     ??GenericApp_MessageMSGCB_1
//  329  {
//  330  case GENERICAPP_CLUSTERID:
//  331   
//  332    osal_memcpy(buffer,pkt->cmd.Data,1);
        ; Setup parameters for call to function osal_memcpy
        MOV     A,R2
        ADD     A,#0x22
        MOV     DPL,A
        MOV     A,R3
        ADDC    A,#0x0
        MOV     DPH,A
        MOVX    A,@DPTR
        MOV     ?V0 + 0,A
        INC     DPTR
        MOVX    A,@DPTR
        MOV     ?V0 + 1,A
        MOV     ?V0 + 2,#0x0
        MOV     R0,#?V0 + 0
        LCALL   ?PUSH_XSTACK_I_THREE
        CFI CFA_XSP16 add(XSP16, 16)
        MOV     R4,#0x1
        MOV     R5,#0x0
        MOV     A,#0x3
        LCALL   ?XSTACK_DISP0_8
        MOV     R2,DPL
        MOV     R3,DPH
        LCALL   ??osal_memcpy?relay
        MOV     A,#0x3
        LCALL   ?DEALLOC_XSTACK8
        CFI CFA_XSP16 add(XSP16, 13)
//  333    if(buffer[0]==2)
        MOV     DPL,?XSP + 0
        MOV     DPH,?XSP + 1
        MOVX    A,@DPTR
        XRL     A,#0x2
        JNZ     ??GenericApp_MessageMSGCB_2
//  334    {
//  335       on=1;
        SETB    0x80.1
//  336       end=0;
        SJMP    ??GenericApp_MessageMSGCB_3
//  337    
//  338    }
//  339    
//  340    if(buffer[0]==3)
??GenericApp_MessageMSGCB_2:
        MOVX    A,@DPTR
        XRL     A,#0x3
        JNZ     ??GenericApp_MessageMSGCB_4
//  341    {
//  342       on=0;
        CLR     0x80.1
//  343       end=0;
??GenericApp_MessageMSGCB_3:
        CLR     0x80.2
//  344    
//  345    }
//  346    HalLedBlink(HAL_LED_2,1,50,500);   // 闪烁一下，空占比50% 0.5秒
??GenericApp_MessageMSGCB_4:
        ; Setup parameters for call to function HalLedBlink
        MOV     R4,#-0xc
        MOV     R5,#0x1
        MOV     R3,#0x32
        MOV     R2,#0x1
        MOV     R1,#0x2
        LCALL   ??HalLedBlink?relay
//  347    break;
//  348  }
//  349 }
??GenericApp_MessageMSGCB_1:
        MOV     A,#0x2
        LCALL   ?DEALLOC_XSTACK8
        CFI CFA_XSP16 add(XSP16, 11)
        MOV     R7,#0x3
        LJMP    ?BANKED_LEAVE_XDATA
        CFI EndBlock cfiBlock24
        REQUIRE _A_P0

        RSEG XDATA_ID:CODE:NOROOT(0)
`?<Initializer for theMessageData>`:
        DB "LED"

        RSEG XDATA_ID:CODE:NOROOT(0)
`?<Initializer for wendu_ge>`:
        DATA8
        DB 4

        RSEG BANK_RELAYS:CODE:REORDER:NOROOT(0)
??Delay_us?relay:
        LCALL   ?BDISPATCH
        DATA
        DC24    Delay_us

        RSEG BANK_RELAYS:CODE:REORDER:NOROOT(0)
??Delay_10us?relay:
        LCALL   ?BDISPATCH
        DATA
        DC24    Delay_10us

        RSEG BANK_RELAYS:CODE:REORDER:NOROOT(0)
??Delay_ms?relay:
        LCALL   ?BDISPATCH
        DATA
        DC24    Delay_ms

        RSEG BANK_RELAYS:CODE:REORDER:NOROOT(0)
??COM?relay:
        LCALL   ?BDISPATCH
        DATA
        DC24    COM

        RSEG BANK_RELAYS:CODE:REORDER:NOROOT(0)
??DHT11?relay:
        LCALL   ?BDISPATCH
        DATA
        DC24    DHT11

        RSEG BANK_RELAYS:CODE:REORDER:NOROOT(0)
??GenericApp_Init?relay:
        LCALL   ?BDISPATCH
        DATA
        DC24    GenericApp_Init

        RSEG BANK_RELAYS:CODE:REORDER:NOROOT(0)
??GenericApp_ProcessEvent?relay:
        LCALL   ?BDISPATCH
        DATA
        DC24    GenericApp_ProcessEvent

        RSEG BANK_RELAYS:CODE:REORDER:NOROOT(0)
??GenericApp_SendTheMessage?relay:
        LCALL   ?BDISPATCH
        DATA
        DC24    GenericApp_SendTheMessage

        RSEG BANK_RELAYS:CODE:REORDER:NOROOT(0)
??GenericApp_MessageMSGCB?relay:
        LCALL   ?BDISPATCH
        DATA
        DC24    GenericApp_MessageMSGCB

        END
//  350 
//  351 //coordinate.h
//  352 #ifndef COORDINATOR_H
//  353 #define  COORDINATOR_H
//  354 #include "ZComDef.h"
//  355 #define GENERICAPP_ENDPOINT  10 
//  356 #define GENERICAPP_PROFID          0X0F04
//  357 #define GENERICAPP_DEVICEID        0X0001
//  358 #define GENERICAPP_DEVICE_VERSION  0
//  359 #define GENERICAPP_FLAGS           0
//  360 #define GENERICAPP_MAX_CLUSTERS    1
//  361 #define GENERICAPP_CLUSTERID       1
//  362 extern void GenericApp_Init(byte task_id);
//  363 extern UINT16 GenericApp_ProcessEvent(byte task_id, UINT16 events);
//  364 #endif
// 
// 985 bytes in segment BANKED_CODE
//  54 bytes in segment BANK_RELAYS
//   2 bytes in segment SFR_AN
//   5 bytes in segment XDATA_I
//   5 bytes in segment XDATA_ID
//  14 bytes in segment XDATA_ROM_C
//  51 bytes in segment XDATA_Z
// 
// 1 044 bytes of CODE  memory
//    14 bytes of CONST memory
//     0 bytes of DATA  memory (+ 2 bytes shared)
//    56 bytes of XDATA memory
//
//Errors: none
//Warnings: 1
