///////////////////////////////////////////////////////////////////////////////
//                                                                            /
// IAR C/C++ Compiler V8.10.3.10338/W32 for 8051        29/Apr/2017  12:04:45 /
// Copyright 2004-2011 IAR Systems AB.                                        /
//                                                                            /
//    Core               =  plain                                             /
//    Code model         =  banked                                            /
//    Data model         =  large                                             /
//    Calling convention =  xdata reentrant                                   /
//    Constant location  =  data_rom                                          /
//    Dptr setup         =  1,16                                              /
//    Source file        =  D:\ZigBeecode\ZStack-CC2530-2.5.1a\Projects\zstac /
//                          k\Samples\GenericApp\Source\Sensor.c              /
//    Command line       =  -f D:\ZigBeecode\ZStack-CC2530-2.5.1a\Projects\zs /
//                          tack\Samples\GenericApp\CC2530DB\..\..\..\Tools\C /
//                          C2530DB\f8wEndev.cfg (-DCPU32MHZ                  /
//                          -DROOT=__near_func -DMAC_CFG_TX_DATA_MAX=3        /
//                          -DMAC_CFG_TX_MAX=6 -DMAC_CFG_RX_MAX=3) -f         /
//                          D:\ZigBeecode\ZStack-CC2530-2.5.1a\Projects\zstac /
//                          k\Samples\GenericApp\CC2530DB\..\..\..\Tools\CC25 /
//                          30DB\f8wConfig.cfg (-DZIGBEEPRO -DSECURE=0        /
//                          -DZG_SECURE_DYNAMIC=0 -DREFLECTOR                 /
//                          -DDEFAULT_CHANLIST=0x00000800                     /
//                          -DZDAPP_CONFIG_PAN_ID=0x0004                      /
//                          -DNWK_START_DELAY=100 -DEXTENDED_JOINING_RANDOM_M /
//                          ASK=0x007F -DBEACON_REQUEST_DELAY=100             /
//                          -DBEACON_REQ_DELAY_MASK=0x00FF                    /
//                          -DLINK_STATUS_JITTER_MASK=0x007F                  /
//                          -DROUTE_EXPIRY_TIME=30 -DAPSC_ACK_WAIT_DURATION_P /
//                          OLLED=3000 -DNWK_INDIRECT_MSG_TIMEOUT=7           /
//                          -DMAX_RREQ_ENTRIES=8 -DAPSC_MAX_FRAME_RETRIES=3   /
//                          -DNWK_MAX_DATA_RETRIES=2                          /
//                          -DMAX_POLL_FAILURE_RETRIES=2 -DMAX_BCAST=9        /
//                          -DAPS_MAX_GROUPS=16 -DMAX_RTG_ENTRIES=40          /
//                          -DNWK_MAX_BINDING_ENTRIES=4                       /
//                          -DMAX_BINDING_CLUSTER_IDS=4                       /
//                          "-DDEFAULT_KEY={0x01, 0x03, 0x05, 0x07, 0x09,     /
//                          0x0B, 0x0D, 0x0F, 0x00, 0x02, 0x04, 0x06, 0x08,   /
//                          0x0A, 0x0C, 0x0D}" -DMAC_MAX_FRAME_SIZE=116       /
//                          -DZDNWKMGR_MIN_TRANSMISSIONS=20 "-DCONST=const    /
//                          __code" -DGENERIC=__generic                       /
//                          -DRFD_RCVC_ALWAYS_ON=FALSE -DPOLL_RATE=1000       /
//                          -DQUEUED_POLL_RATE=100 -DRESPONSE_POLL_RATE=100)  /
//                          -DREJOIN_POLL_RATE=440 D:\ZigBeecode\ZStack-CC253 /
//                          0-2.5.1a\Projects\zstack\Samples\GenericApp\Sourc /
//                          e\Sensor.c -D NWK_AUTO_POLL -D ZTOOL_P1 -D        /
//                          MT_TASK -D MT_SYS_FUNC -D MT_ZDO_FUNC -D          /
//                          LCD_SUPPORTED=DEBUG -D xPOWER_SAVING -lC          /
//                          D:\ZigBeecode\ZStack-CC2530-2.5.1a\Projects\zstac /
//                          k\Samples\GenericApp\CC2530DB\EndDeviceEB\List\   /
//                          -lA D:\ZigBeecode\ZStack-CC2530-2.5.1a\Projects\z /
//                          stack\Samples\GenericApp\CC2530DB\EndDeviceEB\Lis /
//                          t\ --diag_suppress Pe001,Pa010 -o                 /
//                          D:\ZigBeecode\ZStack-CC2530-2.5.1a\Projects\zstac /
//                          k\Samples\GenericApp\CC2530DB\EndDeviceEB\Obj\    /
//                          -e --no_code_motion --debug --core=plain          /
//                          --dptr=16,1 --data_model=large                    /
//                          --code_model=banked --calling_convention=xdata_re /
//                          entrant --place_constants=data_rom                /
//                          --nr_virtual_regs 16 -I                           /
//                          D:\ZigBeecode\ZStack-CC2530-2.5.1a\Projects\zstac /
//                          k\Samples\GenericApp\CC2530DB\ -I                 /
//                          D:\ZigBeecode\ZStack-CC2530-2.5.1a\Projects\zstac /
//                          k\Samples\GenericApp\CC2530DB\..\Source\ -I       /
//                          D:\ZigBeecode\ZStack-CC2530-2.5.1a\Projects\zstac /
//                          k\Samples\GenericApp\CC2530DB\..\..\..\ZMain\TI25 /
//                          30DB\ -I D:\ZigBeecode\ZStack-CC2530-2.5.1a\Proje /
//                          cts\zstack\Samples\GenericApp\CC2530DB\..\..\..\. /
//                          .\..\Components\hal\include\ -I                   /
//                          D:\ZigBeecode\ZStack-CC2530-2.5.1a\Projects\zstac /
//                          k\Samples\GenericApp\CC2530DB\..\..\..\..\..\Comp /
//                          onents\hal\target\CC2530EB\ -I                    /
//                          D:\ZigBeecode\ZStack-CC2530-2.5.1a\Projects\zstac /
//                          k\Samples\GenericApp\CC2530DB\..\..\..\..\..\Comp /
//                          onents\mac\include\ -I D:\ZigBeecode\ZStack-CC253 /
//                          0-2.5.1a\Projects\zstack\Samples\GenericApp\CC253 /
//                          0DB\..\..\..\..\..\Components\mac\high_level\ -I  /
//                          D:\ZigBeecode\ZStack-CC2530-2.5.1a\Projects\zstac /
//                          k\Samples\GenericApp\CC2530DB\..\..\..\..\..\Comp /
//                          onents\mac\low_level\srf04\ -I                    /
//                          D:\ZigBeecode\ZStack-CC2530-2.5.1a\Projects\zstac /
//                          k\Samples\GenericApp\CC2530DB\..\..\..\..\..\Comp /
//                          onents\mac\low_level\srf04\single_chip\ -I        /
//                          D:\ZigBeecode\ZStack-CC2530-2.5.1a\Projects\zstac /
//                          k\Samples\GenericApp\CC2530DB\..\..\..\..\..\Comp /
//                          onents\mt\ -I D:\ZigBeecode\ZStack-CC2530-2.5.1a\ /
//                          Projects\zstack\Samples\GenericApp\CC2530DB\..\.. /
//                          \..\..\..\Components\osal\include\ -I             /
//                          D:\ZigBeecode\ZStack-CC2530-2.5.1a\Projects\zstac /
//                          k\Samples\GenericApp\CC2530DB\..\..\..\..\..\Comp /
//                          onents\services\saddr\ -I                         /
//                          D:\ZigBeecode\ZStack-CC2530-2.5.1a\Projects\zstac /
//                          k\Samples\GenericApp\CC2530DB\..\..\..\..\..\Comp /
//                          onents\services\sdata\ -I                         /
//                          D:\ZigBeecode\ZStack-CC2530-2.5.1a\Projects\zstac /
//                          k\Samples\GenericApp\CC2530DB\..\..\..\..\..\Comp /
//                          onents\stack\af\ -I D:\ZigBeecode\ZStack-CC2530-2 /
//                          .5.1a\Projects\zstack\Samples\GenericApp\CC2530DB /
//                          \..\..\..\..\..\Components\stack\nwk\ -I          /
//                          D:\ZigBeecode\ZStack-CC2530-2.5.1a\Projects\zstac /
//                          k\Samples\GenericApp\CC2530DB\..\..\..\..\..\Comp /
//                          onents\stack\sapi\ -I D:\ZigBeecode\ZStack-CC2530 /
//                          -2.5.1a\Projects\zstack\Samples\GenericApp\CC2530 /
//                          DB\..\..\..\..\..\Components\stack\sec\ -I        /
//                          D:\ZigBeecode\ZStack-CC2530-2.5.1a\Projects\zstac /
//                          k\Samples\GenericApp\CC2530DB\..\..\..\..\..\Comp /
//                          onents\stack\sys\ -I D:\ZigBeecode\ZStack-CC2530- /
//                          2.5.1a\Projects\zstack\Samples\GenericApp\CC2530D /
//                          B\..\..\..\..\..\Components\stack\zdo\ -I         /
//                          D:\ZigBeecode\ZStack-CC2530-2.5.1a\Projects\zstac /
//                          k\Samples\GenericApp\CC2530DB\..\..\..\..\..\Comp /
//                          onents\zmac\ -I D:\ZigBeecode\ZStack-CC2530-2.5.1 /
//                          a\Projects\zstack\Samples\GenericApp\CC2530DB\..\ /
//                          ..\..\..\..\Components\zmac\f8w\ -Ohz             /
//                          --require_prototypes                              /
//    List file          =  D:\ZigBeecode\ZStack-CC2530-2.5.1a\Projects\zstac /
//                          k\Samples\GenericApp\CC2530DB\EndDeviceEB\List\Se /
//                          nsor.s51                                          /
//                                                                            /
//                                                                            /
///////////////////////////////////////////////////////////////////////////////

        NAME Sensor

        RTMODEL "__SystemLibrary", "CLib"
        RTMODEL "__calling_convention", "xdata_reentrant"
        RTMODEL "__code_model", "banked"
        RTMODEL "__core", "plain"
        RTMODEL "__data_model", "large"
        RTMODEL "__dptr_size", "16"
        RTMODEL "__extended_stack", "disabled"
        RTMODEL "__location_for_constants", "data"
        RTMODEL "__number_of_dptrs", "1"
        RTMODEL "__rt_version", "1"

        RSEG DOVERLAY:DATA:NOROOT(0)
        RSEG IOVERLAY:IDATA:NOROOT(0)
        RSEG ISTACK:IDATA:NOROOT(0)
        RSEG PSTACK:XDATA:NOROOT(0)
        RSEG XSTACK:XDATA:NOROOT(0)

        EXTERN ?BANKED_ENTER_XDATA
        EXTERN ?BANKED_LEAVE_XDATA
        EXTERN ?BDISPATCH
        EXTERN ?BRET
        EXTERN ?US_SHR
        EXTERN ?V0
        EXTERN __INIT_XDATA_I
        EXTERN __INIT_XDATA_Z

        PUBLIC ??getVddvalue?relay
        FUNCTION ??getVddvalue?relay,0203H
        PUBLIC ??readTemp?relay
        FUNCTION ??readTemp?relay,0203H
        PUBWEAK ADCCON3
        PUBWEAK ADCH
        PUBWEAK ADCL
        PUBWEAK _A_TCON
        PUBLIC getVddvalue
        FUNCTION getVddvalue,0203H
        ARGFRAME XSTACK, 0, STACK
        LOCFRAME ISTACK, 2, STACK
        PUBLIC readTemp
        FUNCTION readTemp,0203H
        ARGFRAME XSTACK, 0, STACK
        LOCFRAME XSTACK, 10, STACK
        
        CFI Names cfiNames0
        CFI StackFrame CFA_SP SP IDATA
        CFI StackFrame CFA_PSP16 PSP16 XDATA
        CFI StackFrame CFA_XSP16 XSP16 XDATA
        CFI StaticOverlayFrame CFA_IOVERLAY IOVERLAY
        CFI StaticOverlayFrame CFA_DOVERLAY DOVERLAY
        CFI Resource `PSW.CY`:1, `B.BR0`:1, `B.BR1`:1, `B.BR2`:1, `B.BR3`:1
        CFI Resource `B.BR4`:1, `B.BR5`:1, `B.BR6`:1, `B.BR7`:1, `VB.BR8`:1
        CFI Resource `VB.BR9`:1, `VB.BR10`:1, `VB.BR11`:1, `VB.BR12`:1
        CFI Resource `VB.BR13`:1, `VB.BR14`:1, `VB.BR15`:1, VB:8, B:8, A:8
        CFI Resource PSW:8, DPL0:8, DPH0:8, R0:8, R1:8, R2:8, R3:8, R4:8, R5:8
        CFI Resource R6:8, R7:8, V0:8, V1:8, V2:8, V3:8, V4:8, V5:8, V6:8, V7:8
        CFI Resource V8:8, V9:8, V10:8, V11:8, V12:8, V13:8, V14:8, V15:8, SP:8
        CFI Resource PSPH:8, PSPL:8, PSP16:16, XSPH:8, XSPL:8, XSP16:16
        CFI VirtualResource ?RET:24
        CFI Resource ?BRET_EXT:8
        CFI VirtualResource ?RET_HIGH:8, ?RET_LOW:8
        CFI ResourceParts PSP16 PSPH, PSPL
        CFI ResourceParts XSP16 XSPH, XSPL
        CFI ResourceParts ?RET ?BRET_EXT, ?RET_HIGH, ?RET_LOW
        CFI EndNames cfiNames0
        
        CFI Common cfiCommon0 Using cfiNames0
        CFI CodeAlign 1
        CFI DataAlign -1
        CFI ReturnAddress ?RET CODE
        CFI CFA_DOVERLAY Used
        CFI CFA_IOVERLAY Used
        CFI CFA_SP SP+-3
        CFI CFA_PSP16 PSP16+0
        CFI CFA_XSP16 XSP16+0
        CFI `PSW.CY` SameValue
        CFI `B.BR0` SameValue
        CFI `B.BR1` SameValue
        CFI `B.BR2` SameValue
        CFI `B.BR3` SameValue
        CFI `B.BR4` SameValue
        CFI `B.BR5` SameValue
        CFI `B.BR6` SameValue
        CFI `B.BR7` SameValue
        CFI `VB.BR8` SameValue
        CFI `VB.BR9` SameValue
        CFI `VB.BR10` SameValue
        CFI `VB.BR11` SameValue
        CFI `VB.BR12` SameValue
        CFI `VB.BR13` SameValue
        CFI `VB.BR14` SameValue
        CFI `VB.BR15` SameValue
        CFI VB SameValue
        CFI B Undefined
        CFI A Undefined
        CFI PSW SameValue
        CFI DPL0 SameValue
        CFI DPH0 SameValue
        CFI R0 Undefined
        CFI R1 Undefined
        CFI R2 Undefined
        CFI R3 Undefined
        CFI R4 Undefined
        CFI R5 Undefined
        CFI R6 SameValue
        CFI R7 SameValue
        CFI V0 SameValue
        CFI V1 SameValue
        CFI V2 SameValue
        CFI V3 SameValue
        CFI V4 SameValue
        CFI V5 SameValue
        CFI V6 SameValue
        CFI V7 SameValue
        CFI V8 SameValue
        CFI V9 SameValue
        CFI V10 SameValue
        CFI V11 SameValue
        CFI V12 SameValue
        CFI V13 SameValue
        CFI V14 SameValue
        CFI V15 SameValue
        CFI PSPH Undefined
        CFI PSPL Undefined
        CFI XSPH Undefined
        CFI XSPL Undefined
        CFI ?RET Concat
        CFI ?BRET_EXT Frame(CFA_SP, 3)
        CFI ?RET_HIGH Frame(CFA_SP, 2)
        CFI ?RET_LOW Frame(CFA_SP, 1)
        CFI EndCommon cfiCommon0
        
getVddvalue         SYMBOL "getVddvalue"
??getVddvalue?relay SYMBOL "?relay", getVddvalue
readTemp            SYMBOL "readTemp"
??readTemp?relay    SYMBOL "?relay", readTemp

// D:\ZigBeecode\ZStack-CC2530-2.5.1a\Projects\zstack\Samples\GenericApp\Source\Sensor.c
//    1 #include "Sensor.h"
//    2 #include<ioCC2530.h>

        ASEGN SFR_AN:DATA:NOROOT,088H
// union <unnamed> volatile __sfr _A_TCON
_A_TCON:
        DATA8
        DS 1

        ASEGN SFR_AN:DATA:NOROOT,0b6H
// unsigned char volatile __sfr ADCCON3
ADCCON3:
        DATA8
        DS 1

        ASEGN SFR_AN:DATA:NOROOT,0baH
// unsigned char volatile __sfr ADCL
ADCL:
        DATA8
        DS 1

        ASEGN SFR_AN:DATA:NOROOT,0bbH
// unsigned char volatile __sfr ADCH
ADCH:
        DATA8
        DS 1
//    3 
//    4 #define ADC_REF_115V 0x00
//    5 #define ADC_DEC_256 0x20
//    6 #define ADC_CHN_TEMP 0x0e
//    7 #define ADC_DEC_064 0x00
//    8 #define ADC_CHN_VDD3 0x0f
//    9 

        RSEG BANKED_CODE:CODE:NOROOT(0)
//   10 int8 readTemp(void)
readTemp:
        CFI Block cfiBlock0 Using cfiCommon0
        CFI Function readTemp
        CODE
//   11 {
        MOV     A,#-0xa
        LCALL   ?BANKED_ENTER_XDATA
        CFI DPH0 load(1, XDATA, add(CFA_XSP16, literal(-1)))
        CFI DPL0 load(1, XDATA, add(CFA_XSP16, literal(-2)))
        CFI ?BRET_EXT load(1, XDATA, add(CFA_XSP16, literal(-3)))
        CFI ?RET_HIGH load(1, XDATA, add(CFA_XSP16, literal(-4)))
        CFI ?RET_LOW load(1, XDATA, add(CFA_XSP16, literal(-5)))
        CFI R7 load(1, XDATA, add(CFA_XSP16, literal(-6)))
        CFI V1 load(1, XDATA, add(CFA_XSP16, literal(-7)))
        CFI V0 load(1, XDATA, add(CFA_XSP16, literal(-8)))
        CFI VB load(1, XDATA, add(CFA_XSP16, literal(-9)))
        CFI R6 load(1, XDATA, add(CFA_XSP16, literal(-10)))
        CFI CFA_SP SP+0
        CFI CFA_XSP16 add(XSP16, 10)
        ; Saved register size: 10
        ; Auto size: 0
//   12   static uint16 reference_voltage;
//   13   static uint8 bCalibrate=TRUE;
//   14   unsigned char tmpADCCON3=ADCCON3;
        MOV     A,0xb6
        MOV     R4,A
//   15   uint16 value;
//   16   int8 temp;
//   17   
//   18   ATEST=0x01;
        MOV     DPTR,#0x61bd
        MOV     A,#0x1
        MOVX    @DPTR,A
//   19   TR0 |=0x01;
        MOV     DPTR,#0x624b
        MOVX    A,@DPTR
        SETB    0xE0 /* A   */.0
        MOVX    @DPTR,A
//   20   ADCIF=0;
        CLR     0x88.5
//   21 ADCCON3=(ADC_REF_115V | ADC_DEC_256 | ADC_CHN_TEMP )  ;
        MOV     0xb6,#0x2e
//   22 while(!ADCIF);
??readTemp_0:
        MOV     C,0x88.5
        JNC     ??readTemp_0
//   23 ADCIF=0;
        CLR     0x88.5
//   24 value=ADCL;
        MOV     A,0xba
        MOV     ?V0 + 0,A
//   25 value |=((uint16)ADCH)<<8;
//   26 value >>=4;
        MOV     A,0xbb
        MOV     ?V0 + 1,A
        MOV     A,#0x4
        MOV     R0,#?V0 + 0
        LCALL   ?US_SHR
        MOV     R2,?V0 + 0
        MOV     R3,?V0 + 1
//   27 ADCCON3=tmpADCCON3;
        MOV     0xb6,R4
//   28   if(bCalibrate)
        MOV     DPTR,#??bCalibrate
        MOVX    A,@DPTR
        JZ      ??readTemp_1
//   29   {
//   30     reference_voltage=value;
        MOV     DPTR,#??reference_voltage
        MOV     A,R2
        MOVX    @DPTR,A
        INC     DPTR
        MOV     A,R3
        MOVX    @DPTR,A
//   31     bCalibrate=FALSE;
        MOV     DPTR,#??bCalibrate
        CLR     A
        MOVX    @DPTR,A
//   32   }
//   33   temp=22+((value-reference_voltage)/4);
//   34   return temp;
??readTemp_1:
        MOV     DPTR,#??reference_voltage
        MOVX    A,@DPTR
        MOV     R0,A
        INC     DPTR
        MOVX    A,@DPTR
        MOV     R1,A
        MOV     A,R2
        CLR     C
        SUBB    A,R0
        MOV     ?V0 + 0,A
        MOV     A,R3
        SUBB    A,R1
        MOV     ?V0 + 1,A
        MOV     A,#0x2
        MOV     R0,#?V0 + 0
        LCALL   ?US_SHR
        MOV     A,?V0 + 0
        ADD     A,#0x16
        MOV     R1,A
        MOV     R7,#0x2
        LJMP    ?BANKED_LEAVE_XDATA
        CFI EndBlock cfiBlock0
        REQUIRE ADCCON3
        REQUIRE _A_TCON
        REQUIRE ADCL
        REQUIRE ADCH
//   35 
//   36 }

        RSEG XDATA_Z:XDATA:NOROOT(0)
        DATA16
??reference_voltage:
        DS 2
        REQUIRE __INIT_XDATA_Z

        RSEG XDATA_I:XDATA:NOROOT(0)
??bCalibrate:
        DATA8
        DS 1
        REQUIRE `?<Initializer for bCalibrate>`
        REQUIRE __INIT_XDATA_I
//   37 

        RSEG BANKED_CODE:CODE:NOROOT(0)
//   38 unsigned int getVddvalue(void)
getVddvalue:
        CFI Block cfiBlock1 Using cfiCommon0
        CFI Function getVddvalue
        CODE
//   39 {
        ; Saved register size: 2
        ; Auto size: 0
//   40   unsigned int value;
//   41   unsigned char tmpADCCON3=ADCCON3;
        MOV     A,0xb6
        MOV     R0,A
//   42   
//   43   ADCIF=0;
        CLR     0x88.5
//   44   ADCCON3=(ADC_REF_115V | ADC_DEC_064 | ADC_CHN_VDD3);
        MOV     0xb6,#0xf
//   45   while(!ADCIF);
??getVddvalue_0:
        MOV     C,0x88.5
        JNC     ??getVddvalue_0
//   46   
//   47   value=ADCH;
        MOV     A,0xbb
//   48   ADCCON3=tmpADCCON3;
        MOV     0xb6,R0
//   49   
//   50   return(value);
        MOV     R2,A
        MOV     R3,#0x0
        LJMP    ?BRET
        CFI EndBlock cfiBlock1
        REQUIRE ADCCON3
        REQUIRE _A_TCON
        REQUIRE ADCH
//   51 }

        RSEG XDATA_ID:CODE:NOROOT(0)
`?<Initializer for bCalibrate>`:
        DATA8
        DB 1

        RSEG BANK_RELAYS:CODE:REORDER:NOROOT(0)
??readTemp?relay:
        LCALL   ?BDISPATCH
        DATA
        DC24    readTemp

        RSEG BANK_RELAYS:CODE:REORDER:NOROOT(0)
??getVddvalue?relay:
        LCALL   ?BDISPATCH
        DATA
        DC24    getVddvalue

        END
// 
// 128 bytes in segment BANKED_CODE
//  12 bytes in segment BANK_RELAYS
//   4 bytes in segment SFR_AN
//   1 byte  in segment XDATA_I
//   1 byte  in segment XDATA_ID
//   2 bytes in segment XDATA_Z
// 
// 141 bytes of CODE  memory
//   0 bytes of DATA  memory (+ 4 bytes shared)
//   3 bytes of XDATA memory
//
//Errors: none
//Warnings: none
