###############################################################################
#                                                                             #
# IAR C/C++ Compiler V8.10.1.10194/W32 for 8051         28/Dec/2018  17:12:27 #
# Copyright 2004-2011 IAR Systems AB.                                         #
#                                                                             #
#    Core               =  plain                                              #
#    Code model         =  banked                                             #
#    Data model         =  large                                              #
#    Calling convention =  xdata reentrant                                    #
#    Constant location  =  data_rom                                           #
#    Dptr setup         =  1,16                                               #
#    Source file        =  C:\Texas Instruments\ZStack-CC2530-2.5.1a\Projects #
#                          \zstack\Samples\GenericApp\Source\DHT11.c          #
#    Command line       =  -f "C:\Texas Instruments\ZStack-CC2530-2.5.1a\Proj #
#                          ects\zstack\Samples\GenericApp\CC2530DB\..\..\..\T #
#                          ools\CC2530DB\f8wEndev.cfg" (-DCPU32MHZ            #
#                          -DROOT=__near_func -DMAC_CFG_TX_DATA_MAX=3         #
#                          -DMAC_CFG_TX_MAX=6 -DMAC_CFG_RX_MAX=3) -f          #
#                          "C:\Texas Instruments\ZStack-CC2530-2.5.1a\Project #
#                          s\zstack\Samples\GenericApp\CC2530DB\..\..\..\Tool #
#                          s\CC2530DB\f8wConfig.cfg" (-DZIGBEEPRO -DSECURE=0  #
#                          -DZG_SECURE_DYNAMIC=0 -DREFLECTOR                  #
#                          -DDEFAULT_CHANLIST=0x00000800                      #
#                          -DZDAPP_CONFIG_PAN_ID=0xFFFF                       #
#                          -DNWK_START_DELAY=100 -DEXTENDED_JOINING_RANDOM_MA #
#                          SK=0x007F -DBEACON_REQUEST_DELAY=100               #
#                          -DBEACON_REQ_DELAY_MASK=0x00FF                     #
#                          -DLINK_STATUS_JITTER_MASK=0x007F                   #
#                          -DROUTE_EXPIRY_TIME=30 -DAPSC_ACK_WAIT_DURATION_PO #
#                          LLED=3000 -DNWK_INDIRECT_MSG_TIMEOUT=7             #
#                          -DMAX_RREQ_ENTRIES=8 -DAPSC_MAX_FRAME_RETRIES=3    #
#                          -DNWK_MAX_DATA_RETRIES=2                           #
#                          -DMAX_POLL_FAILURE_RETRIES=2 -DMAX_BCAST=9         #
#                          -DAPS_MAX_GROUPS=16 -DMAX_RTG_ENTRIES=40           #
#                          -DNWK_MAX_BINDING_ENTRIES=4                        #
#                          -DMAX_BINDING_CLUSTER_IDS=4 "-DDEFAULT_KEY={0x01,  #
#                          0x03, 0x05, 0x07, 0x09, 0x0B, 0x0D, 0x0F, 0x00,    #
#                          0x02, 0x04, 0x06, 0x08, 0x0A, 0x0C, 0x0D}"         #
#                          -DMAC_MAX_FRAME_SIZE=116                           #
#                          -DZDNWKMGR_MIN_TRANSMISSIONS=20 "-DCONST=const     #
#                          __code" -DGENERIC=__generic                        #
#                          -DRFD_RCVC_ALWAYS_ON=FALSE -DPOLL_RATE=1000        #
#                          -DQUEUED_POLL_RATE=100 -DRESPONSE_POLL_RATE=100)   #
#                          -DREJOIN_POLL_RATE=440 "C:\Texas                   #
#                          Instruments\ZStack-CC2530-2.5.1a\Projects\zstack\S #
#                          amples\GenericApp\Source\DHT11.c" -D               #
#                          NWK_AUTO_POLL -D ZTOOL_P1 -D MT_TASK -D            #
#                          MT_SYS_FUNC -D MT_ZDO_FUNC -D LCD_SUPPORTED=DEBUG  #
#                          -D xPOWER_SAVING -D HAL_UART=TRUE -lC "C:\Texas    #
#                          Instruments\ZStack-CC2530-2.5.1a\Projects\zstack\S #
#                          amples\GenericApp\CC2530DB\EndDeviceEB\List\" -lA  #
#                          "C:\Texas Instruments\ZStack-CC2530-2.5.1a\Project #
#                          s\zstack\Samples\GenericApp\CC2530DB\EndDeviceEB\L #
#                          ist\" --diag_suppress Pe001,Pa010 -o "C:\Texas     #
#                          Instruments\ZStack-CC2530-2.5.1a\Projects\zstack\S #
#                          amples\GenericApp\CC2530DB\EndDeviceEB\Obj\" -e    #
#                          --no_code_motion --debug --core=plain --dptr=16,1  #
#                          --data_model=large --code_model=banked             #
#                          --calling_convention=xdata_reentrant               #
#                          --place_constants=data_rom --nr_virtual_regs 16    #
#                          -I "C:\Texas Instruments\ZStack-CC2530-2.5.1a\Proj #
#                          ects\zstack\Samples\GenericApp\CC2530DB\" -I       #
#                          "C:\Texas Instruments\ZStack-CC2530-2.5.1a\Project #
#                          s\zstack\Samples\GenericApp\CC2530DB\..\Source\"   #
#                          -I "C:\Texas Instruments\ZStack-CC2530-2.5.1a\Proj #
#                          ects\zstack\Samples\GenericApp\CC2530DB\..\..\..\Z #
#                          Main\TI2530DB\" -I "C:\Texas                       #
#                          Instruments\ZStack-CC2530-2.5.1a\Projects\zstack\S #
#                          amples\GenericApp\CC2530DB\..\..\..\..\..\Componen #
#                          ts\hal\include\" -I "C:\Texas                      #
#                          Instruments\ZStack-CC2530-2.5.1a\Projects\zstack\S #
#                          amples\GenericApp\CC2530DB\..\..\..\..\..\Componen #
#                          ts\hal\target\CC2530EB\" -I "C:\Texas              #
#                          Instruments\ZStack-CC2530-2.5.1a\Projects\zstack\S #
#                          amples\GenericApp\CC2530DB\..\..\..\..\..\Componen #
#                          ts\mac\include\" -I "C:\Texas                      #
#                          Instruments\ZStack-CC2530-2.5.1a\Projects\zstack\S #
#                          amples\GenericApp\CC2530DB\..\..\..\..\..\Componen #
#                          ts\mac\high_level\" -I "C:\Texas                   #
#                          Instruments\ZStack-CC2530-2.5.1a\Projects\zstack\S #
#                          amples\GenericApp\CC2530DB\..\..\..\..\..\Componen #
#                          ts\mac\low_level\srf04\" -I "C:\Texas              #
#                          Instruments\ZStack-CC2530-2.5.1a\Projects\zstack\S #
#                          amples\GenericApp\CC2530DB\..\..\..\..\..\Componen #
#                          ts\mac\low_level\srf04\single_chip\" -I "C:\Texas  #
#                          Instruments\ZStack-CC2530-2.5.1a\Projects\zstack\S #
#                          amples\GenericApp\CC2530DB\..\..\..\..\..\Componen #
#                          ts\mt\" -I "C:\Texas Instruments\ZStack-CC2530-2.5 #
#                          .1a\Projects\zstack\Samples\GenericApp\CC2530DB\.. #
#                          \..\..\..\..\Components\osal\include\" -I          #
#                          "C:\Texas Instruments\ZStack-CC2530-2.5.1a\Project #
#                          s\zstack\Samples\GenericApp\CC2530DB\..\..\..\..\. #
#                          .\Components\services\saddr\" -I "C:\Texas         #
#                          Instruments\ZStack-CC2530-2.5.1a\Projects\zstack\S #
#                          amples\GenericApp\CC2530DB\..\..\..\..\..\Componen #
#                          ts\services\sdata\" -I "C:\Texas                   #
#                          Instruments\ZStack-CC2530-2.5.1a\Projects\zstack\S #
#                          amples\GenericApp\CC2530DB\..\..\..\..\..\Componen #
#                          ts\stack\af\" -I "C:\Texas                         #
#                          Instruments\ZStack-CC2530-2.5.1a\Projects\zstack\S #
#                          amples\GenericApp\CC2530DB\..\..\..\..\..\Componen #
#                          ts\stack\nwk\" -I "C:\Texas                        #
#                          Instruments\ZStack-CC2530-2.5.1a\Projects\zstack\S #
#                          amples\GenericApp\CC2530DB\..\..\..\..\..\Componen #
#                          ts\stack\sapi\" -I "C:\Texas                       #
#                          Instruments\ZStack-CC2530-2.5.1a\Projects\zstack\S #
#                          amples\GenericApp\CC2530DB\..\..\..\..\..\Componen #
#                          ts\stack\sec\" -I "C:\Texas                        #
#                          Instruments\ZStack-CC2530-2.5.1a\Projects\zstack\S #
#                          amples\GenericApp\CC2530DB\..\..\..\..\..\Componen #
#                          ts\stack\sys\" -I "C:\Texas                        #
#                          Instruments\ZStack-CC2530-2.5.1a\Projects\zstack\S #
#                          amples\GenericApp\CC2530DB\..\..\..\..\..\Componen #
#                          ts\stack\zdo\" -I "C:\Texas                        #
#                          Instruments\ZStack-CC2530-2.5.1a\Projects\zstack\S #
#                          amples\GenericApp\CC2530DB\..\..\..\..\..\Componen #
#                          ts\zmac\" -I "C:\Texas Instruments\ZStack-CC2530-2 #
#                          .5.1a\Projects\zstack\Samples\GenericApp\CC2530DB\ #
#                          ..\..\..\..\..\Components\zmac\f8w\" -Ohz          #
#    List file          =  C:\Texas Instruments\ZStack-CC2530-2.5.1a\Projects #
#                          \zstack\Samples\GenericApp\CC2530DB\EndDeviceEB\Li #
#                          st\DHT11.lst                                       #
#    Object file        =  C:\Texas Instruments\ZStack-CC2530-2.5.1a\Projects #
#                          \zstack\Samples\GenericApp\CC2530DB\EndDeviceEB\Ob #
#                          j\DHT11.r51                                        #
#                                                                             #
#                                                                             #
###############################################################################

C:\Texas Instruments\ZStack-CC2530-2.5.1a\Projects\zstack\Samples\GenericApp\Source\DHT11.c
      1          #include "OSAL.h"
      2          #include "AF.h"
      3          #include "ZDApp.h"
      4          #include "ZDObject.h"
      5          #include "ZDProfile.h"
      6          #include <string.h>
      7          #include "Coordinator.h"
      8          #include "DebugTrace.h"
      9          
     10          #include <ioCC2530.h>

   \                                 In  segment SFR_AN, at 0x80
   \   union <unnamed> volatile __sfr _A_P0
   \                     _A_P0:
   \   000000                DS 1

   \                                 In  segment SFR_AN, at 0xfd
   \   unsigned char volatile __sfr P0DIR
   \                     P0DIR:
   \   000000                DS 1
     11          #include "OnBoard.h"
     12          
     13          #if !defined( WIN32 )
     14            #include "OnBoard.h"
     15          #endif
     16          
     17          /* HAL */
     18          #include "hal_lcd.h"
     19          #include "hal_led.h"
     20          #include "hal_key.h"
     21          #include "hal_uart.h"
     22          
     23          
     24          /* RTOS */
     25          //#if defined( IAR_ARMCM3_LM )
     26          //#include "RTOS_App.h"
     27          //#endif  
     28          
     29          #define SEND_DATA_EVENT 0x01
     30          
     31          
     32          #define DATA_PIN P0_7
     33          
     34          
     35          //typedef unsigned char uchar;
     36          //typedef unsigned int uint;
     37          //温湿度定义

   \                                 In  segment XDATA_Z, align 1, keep-with-next
     38          uchar ucharFLAG,uchartemp;
   \                     ucharFLAG:
   \   000000                DS 1
   \   000001                REQUIRE __INIT_XDATA_Z

   \                                 In  segment XDATA_Z, align 1, keep-with-next
   \                     uchartemp:
   \   000000                DS 1
   \   000001                REQUIRE __INIT_XDATA_Z

   \                                 In  segment XDATA_Z, align 1, keep-with-next
     39          uchar shidu_shi,shidu_ge,wendu_shi,wendu_ge=4;
   \                     shidu_shi:
   \   000000                DS 1
   \   000001                REQUIRE __INIT_XDATA_Z

   \                                 In  segment XDATA_Z, align 1, keep-with-next
   \                     shidu_ge:
   \   000000                DS 1
   \   000001                REQUIRE __INIT_XDATA_Z

   \                                 In  segment XDATA_Z, align 1, keep-with-next
   \                     wendu_shi:
   \   000000                DS 1
   \   000001                REQUIRE __INIT_XDATA_Z

   \                                 In  segment XDATA_I, align 1, keep-with-next
   \                     wendu_ge:
   \   000000                DS 1
   \   000001                REQUIRE `?<Initializer for wendu_ge>`
   \   000001                REQUIRE __INIT_XDATA_I

   \                                 In  segment XDATA_Z, align 1, keep-with-next
     40          uchar ucharT_data_H,ucharT_data_L,ucharRH_data_H,ucharRH_data_L,ucharcheckdata;
   \                     ucharT_data_H:
   \   000000                DS 1
   \   000001                REQUIRE __INIT_XDATA_Z

   \                                 In  segment XDATA_Z, align 1, keep-with-next
   \                     ucharT_data_L:
   \   000000                DS 1
   \   000001                REQUIRE __INIT_XDATA_Z

   \                                 In  segment XDATA_Z, align 1, keep-with-next
   \                     ucharRH_data_H:
   \   000000                DS 1
   \   000001                REQUIRE __INIT_XDATA_Z

   \                                 In  segment XDATA_Z, align 1, keep-with-next
   \                     ucharRH_data_L:
   \   000000                DS 1
   \   000001                REQUIRE __INIT_XDATA_Z

   \                                 In  segment XDATA_Z, align 1, keep-with-next
   \                     ucharcheckdata:
   \   000000                DS 1
   \   000001                REQUIRE __INIT_XDATA_Z

   \                                 In  segment XDATA_Z, align 1, keep-with-next
     41          uchar ucharT_data_H_temp,ucharT_data_L_temp,ucharRH_data_H_temp,ucharRH_data_L_temp,ucharcheckdata_temp;
   \                     ucharT_data_H_temp:
   \   000000                DS 1
   \   000001                REQUIRE __INIT_XDATA_Z

   \                                 In  segment XDATA_Z, align 1, keep-with-next
   \                     ucharT_data_L_temp:
   \   000000                DS 1
   \   000001                REQUIRE __INIT_XDATA_Z

   \                                 In  segment XDATA_Z, align 1, keep-with-next
   \                     ucharRH_data_H_temp:
   \   000000                DS 1
   \   000001                REQUIRE __INIT_XDATA_Z

   \                                 In  segment XDATA_Z, align 1, keep-with-next
   \                     ucharRH_data_L_temp:
   \   000000                DS 1
   \   000001                REQUIRE __INIT_XDATA_Z

   \                                 In  segment XDATA_Z, align 1, keep-with-next
   \                     ucharcheckdata_temp:
   \   000000                DS 1
   \   000001                REQUIRE __INIT_XDATA_Z

   \                                 In  segment XDATA_Z, align 1, keep-with-next
     42          uchar ucharcomdata;
   \                     ucharcomdata:
   \   000000                DS 1
   \   000001                REQUIRE __INIT_XDATA_Z

   \                                 In  segment XDATA_Z, align 1, keep-with-next
     43          uchar wen[10];
   \                     wen:
   \   000000                DS 10
   \   00000A                REQUIRE __INIT_XDATA_Z
     44          //--------------------------------
     45          //-----湿度读取子程序 ------------
     46          //--------------------------------
     47          //----以下变量均为全局变量--------
     48          //----温度高8位== U8T_data_H------
     49          //----温度低8位== U8T_data_L------
     50          //----湿度高8位== U8RH_data_H-----
     51          //----湿度低8位== U8RH_data_L-----
     52          //----校验 8位 == U8checkdata-----
     53          //----调用相关子程序如下----------
     54          //---- Delay();, Delay_10us();,COM(); 
     55          //--------------------------------
     56          
     57          
     58          
     59          

   \                                 In  segment XDATA_ROM_C, align 1
     60          const cId_t GenericApp_ClusterList[GENERICAPP_MAX_CLUSTERS] =
   \                     GenericApp_ClusterList:
   \   000000   0100         DW 1
     61          {
     62            GENERICAPP_CLUSTERID
     63          };
     64          

   \                                 In  segment XDATA_ROM_C, align 1
     65          const SimpleDescriptionFormat_t GenericApp_SimpleDesc =
   \                     GenericApp_SimpleDesc:
   \   000000   0A           DB 10
   \   000001   040F         DW 3844
   \   000003   0100         DW 1
   \   000005   00           DB 0
   \   000006   01           DB 1
   \   000007   ....         DW GenericApp_ClusterList
   \   000009   01           DB 1
   \   00000A   ....         DW GenericApp_ClusterList
     66          {
     67            GENERICAPP_ENDPOINT,              //  int Endpoint;
     68            GENERICAPP_PROFID,                //  uint16 AppProfId[2];
     69            GENERICAPP_DEVICEID,              //  uint16 AppDeviceId[2];
     70            GENERICAPP_DEVICE_VERSION,        //  int   AppDevVer:4;
     71            GENERICAPP_FLAGS,                 //  int   AppFlags:4;
     72            GENERICAPP_MAX_CLUSTERS,          //  byte  AppNumInClusters;
     73            (cId_t *)GenericApp_ClusterList,  //  byte *pAppInClusterList;
     74             GENERICAPP_MAX_CLUSTERS,         //  byte  AppNumInClusters;
     75            (cId_t *)GenericApp_ClusterList   //  byte *pAppInClusterList;
     76          };
     77          
     78          

   \                                 In  segment XDATA_Z, align 1, keep-with-next
     79          endPointDesc_t GenericApp_epDesc;
   \                     GenericApp_epDesc:
   \   000000                DS 6
   \   000006                REQUIRE __INIT_XDATA_Z

   \                                 In  segment XDATA_Z, align 1, keep-with-next
     80          byte GenericApp_TaskID;  
   \                     GenericApp_TaskID:
   \   000000                DS 1
   \   000001                REQUIRE __INIT_XDATA_Z

   \                                 In  segment XDATA_Z, align 1, keep-with-next
     81          byte GenericApp_TransID; 
   \                     GenericApp_TransID:
   \   000000                DS 1
   \   000001                REQUIRE __INIT_XDATA_Z

   \                                 In  segment XDATA_Z, align 1, keep-with-next
     82          devStates_t GnenricApp_NwkState;
   \                     GnenricApp_NwkState:
   \   000000                DS 1
   \   000001                REQUIRE __INIT_XDATA_Z
     83          //unsigned char uartbuf[128];
     84          //static void rxCB(uint8 port,uint8 event);
     85          void GenericApp_MessageMSGCB(afIncomingMSGPacket_t *pckt);
     86          void  GenericApp_SendTheMessage(void);
     87          void DHT11(void);
     88          void Delay_us(void);
     89          void Delay_10us(void);
     90          void Delay_ms(uint Time);
     91          void COM(void);
     92          /*static void rxCB(uint8 port,uint8 event)
     93          { HalLedBlink(HAL_LED_2,0,50,500);
     94            //UARTWrite(0,"aaaaaa",6);
     95            HalUARTRead(0,uartbuf,16);
     96           if(osal_memcmp(uartbuf,"www.wlwmaker.com",16))
     97           { 
     98             HalUARTWrite(0,uartbuf,16);
     99           }
    100          }
    101          */
    102          
    103          
    104          //延时函数

   \                                 In  segment BANKED_CODE, align 1, keep-with-next
    105          void Delay_us(void) //1 us延时
   \                     Delay_us:
    106          {
   \   000000   C082         PUSH    DPL
   \   000002   C083         PUSH    DPH
   \   000004                ; Saved register size: 2
   \   000004                ; Auto size: 0
    107          
    108              MicroWait(1);
   \   000004                ; Setup parameters for call to function Onboard_wait
   \   000004   7A01         MOV     R2,#0x1
   \   000006                REQUIRE ?Subroutine0
   \   000006                ; // Fall through to label ?Subroutine0
    109          }

   \                                 In  segment BANKED_CODE, align 1, keep-with-next
   \                     ?Subroutine0:
   \   000000   7B00         MOV     R3,#0x0
   \   000002   12....       LCALL   ??Onboard_wait?relay
   \   000005                REQUIRE ??Subroutine5_0
   \   000005                ; // Fall through to label ??Subroutine5_0

   \                                 In  segment BANKED_CODE, align 1, keep-with-next
   \                     ??Subroutine5_0:
   \   000000   D083         POP     DPH
   \   000002   D082         POP     DPL
   \   000004   02....       LJMP    ?BRET
    110          
    111          

   \                                 In  segment BANKED_CODE, align 1, keep-with-next
    112          void Delay_10us(void) //10 us延时
   \                     Delay_10us:
    113          {
   \   000000   C082         PUSH    DPL
   \   000002   C083         PUSH    DPH
   \   000004                ; Saved register size: 2
   \   000004                ; Auto size: 0
    114            MicroWait(10);
   \   000004                ; Setup parameters for call to function Onboard_wait
   \   000004   7A0A         MOV     R2,#0xa
   \   000006   80..         SJMP    ?Subroutine0
    115          }
    116          

   \                                 In  segment BANKED_CODE, align 1, keep-with-next
    117          void Delay_ms(uint Time)//n ms延时
   \                     Delay_ms:
    118          {
   \   000000   74F7         MOV     A,#-0x9
   \   000002   12....       LCALL   ?BANKED_ENTER_XDATA
   \   000005                ; Saved register size: 9
   \   000005                ; Auto size: 0
   \   000005   EA           MOV     A,R2
   \   000006   FE           MOV     R6,A
   \   000007   EB           MOV     A,R3
   \   000008   FF           MOV     R7,A
    119              unsigned char i;
    120              while(Time--)
   \                     ??Delay_ms_0:
   \   000009   EE           MOV     A,R6
   \   00000A   F8           MOV     R0,A
   \   00000B   EF           MOV     A,R7
   \   00000C   F9           MOV     R1,A
   \   00000D   E8           MOV     A,R0
   \   00000E   24FF         ADD     A,#-0x1
   \   000010   1E           DEC     R6
   \   000011   E9           MOV     A,R1
   \   000012   34FF         ADDC    A,#-0x1
   \   000014   FF           MOV     R7,A
   \   000015   E8           MOV     A,R0
   \   000016   49           ORL     A,R1
   \   000017   6012         JZ      ??Delay_ms_1
    121              {
    122                  for(i=0;i<100;i++)
   \   000019   75..64       MOV     ?V0 + 0,#0x64
    123                      Delay_10us();
   \                     ??Delay_ms_2:
   \   00001C                ; Setup parameters for call to function Onboard_wait
   \   00001C   7A0A         MOV     R2,#0xa
   \   00001E   7B00         MOV     R3,#0x0
   \   000020   12....       LCALL   ??Onboard_wait?relay
   \   000023   15..         DEC     ?V0 + 0
   \   000025   E5..         MOV     A,?V0 + 0
   \   000027   60E0         JZ      ??Delay_ms_0
   \   000029   80F1         SJMP    ??Delay_ms_2
    124              }
    125          }
   \                     ??Delay_ms_1:
   \   00002B                REQUIRE ?Subroutine1
   \   00002B                ; // Fall through to label ?Subroutine1

   \                                 In  segment BANKED_CODE, align 1, keep-with-next
   \                     ?Subroutine1:
   \   000000   7F01         MOV     R7,#0x1
   \   000002   02....       LJMP    ?BANKED_LEAVE_XDATA
    126          
    127          
    128          //温湿度传感

   \                                 In  segment BANKED_CODE, align 1, keep-with-next
    129          void COM(void)    // 温湿写入
   \                     COM:
    130          {     
   \   000000   74F7         MOV     A,#-0x9
   \   000002   12....       LCALL   ?BANKED_ENTER_XDATA
   \   000005                ; Saved register size: 9
   \   000005                ; Auto size: 0
    131              uchar i;         
    132              for(i=0;i<8;i++)    
   \   000005   7E08         MOV     R6,#0x8
    133              {
    134                  ucharFLAG=2; 
   \                     ??COM_0:
   \   000007   90....       MOV     DPTR,#ucharFLAG
   \   00000A   7402         MOV     A,#0x2
   \   00000C   F0           MOVX    @DPTR,A
    135                  while((!DATA_PIN)&&ucharFLAG++);
   \                     ??COM_1:
   \   00000D   A287         MOV     C,0x80.7
   \   00000F   4005         JC      ??COM_2
   \   000011   12....       LCALL   ?Subroutine4 & 0xFFFF
   \                     ??CrossCallReturnLabel_6:
   \   000014   70F7         JNZ     ??COM_1
    136                  Delay_10us();
   \                     ??COM_2:
   \   000016                ; Setup parameters for call to function Onboard_wait
   \   000016   12....       LCALL   ?Subroutine2 & 0xFFFF
    137                  Delay_10us();
    138                  Delay_10us();
    139                  uchartemp=0;
   \                     ??CrossCallReturnLabel_0:
   \   000019   90....       MOV     DPTR,#uchartemp
   \   00001C   E4           CLR     A
   \   00001D   F0           MOVX    @DPTR,A
    140                  if(DATA_PIN)uchartemp=1;//如果超过30us还没置0，则数据为1，置0，则数据为0
   \   00001E   A287         MOV     C,0x80.7
   \   000020   5002         JNC     ??COM_3
   \   000022   04           INC     A
   \   000023   F0           MOVX    @DPTR,A
    141                  ucharFLAG=2;
   \                     ??COM_3:
   \   000024   90....       MOV     DPTR,#ucharFLAG
   \   000027   7402         MOV     A,#0x2
   \   000029   F0           MOVX    @DPTR,A
    142                  while((DATA_PIN)&&ucharFLAG++); //等待置0  
   \                     ??COM_4:
   \   00002A   A287         MOV     C,0x80.7
   \   00002C   5005         JNC     ??COM_5
   \   00002E   12....       LCALL   ?Subroutine4 & 0xFFFF
   \                     ??CrossCallReturnLabel_7:
   \   000031   70F7         JNZ     ??COM_4
    143                  if(ucharFLAG==1)break;    
   \                     ??COM_5:
   \   000033   E0           MOVX    A,@DPTR
   \   000034   6401         XRL     A,#0x1
   \   000036   601B         JZ      ??COM_6
    144                  ucharcomdata<<=1;//ucharcomdata左移一位赋值给ucharcomdata
    145                  ucharcomdata|=uchartemp;//两句合起来就是给最高位赋值
   \   000038   90....       MOV     DPTR,#uchartemp
   \   00003B   C082         PUSH    DPL
   \   00003D   90....       MOV     DPTR,#ucharcomdata
   \   000040   E0           MOVX    A,@DPTR
   \   000041   C3           CLR     C
   \   000042   33           RLC     A
   \   000043   7583..       MOV     DPH,#(uchartemp >> 8) & 0xff
   \   000046   D082         POP     DPL
   \   000048   F8           MOV     R0,A
   \   000049   E0           MOVX    A,@DPTR
   \   00004A   48           ORL     A,R0
   \   00004B   90....       MOV     DPTR,#ucharcomdata
   \   00004E   F0           MOVX    @DPTR,A
    146              }    
   \   00004F   1E           DEC     R6
   \   000050   EE           MOV     A,R6
   \   000051   70B4         JNZ     ??COM_0
    147          }
   \                     ??COM_6:
   \   000053   80..         SJMP    ?Subroutine1
   \   000055                REQUIRE _A_P0

   \                                 In  segment BANKED_CODE, align 1, keep-with-next
   \                     ?Subroutine4:
   \   000000   E0           MOVX    A,@DPTR
   \   000001   F8           MOV     R0,A
   \   000002   7401         MOV     A,#0x1
   \   000004   28           ADD     A,R0
   \   000005   F0           MOVX    @DPTR,A
   \   000006   E8           MOV     A,R0
   \   000007   22           RET

   \                                 In  segment BANKED_CODE, align 1, keep-with-next
   \                     ?Subroutine2:
   \   000000   7A0A         MOV     R2,#0xa
   \   000002   7B00         MOV     R3,#0x0
   \   000004   12....       LCALL   ??Onboard_wait?relay
   \   000007                ; Setup parameters for call to function Onboard_wait
   \   000007                ; Setup parameters for call to function Onboard_wait
   \   000007   7A0A         MOV     R2,#0xa
   \   000009   7B00         MOV     R3,#0x0
   \   00000B   12....       LCALL   ??Onboard_wait?relay
   \   00000E                ; Setup parameters for call to function Onboard_wait
   \   00000E                ; Setup parameters for call to function Onboard_wait
   \   00000E   7A0A         MOV     R2,#0xa
   \   000010   7B00         MOV     R3,#0x0
   \   000012   12....       LCALL   ??Onboard_wait?relay
   \   000015   22           RET
    148          
    149          

   \                                 In  segment BANKED_CODE, align 1, keep-with-next
    150          void DHT11(void)   //温湿传感启动
   \                     DHT11:
    151          {
   \   000000   C082         PUSH    DPL
   \   000002   C083         PUSH    DPH
   \   000004                ; Saved register size: 2
   \   000004                ; Auto size: 0
    152              DATA_PIN=0;//置低电平
   \   000004   C287         CLR     0x80.7
    153              Delay_ms(19);  //>18MS
   \   000006                ; Setup parameters for call to function Delay_ms
   \   000006   7A13         MOV     R2,#0x13
   \   000008   7B00         MOV     R3,#0x0
   \   00000A   12....       LCALL   ??Delay_ms?relay
    154              DATA_PIN=1; //置高电平，开始信号发送结束
   \   00000D   D287         SETB    0x80.7
    155              P0DIR &= ~0x80; //重新配置IO口方向，输入
   \   00000F   53FD7F       ANL     0xfd,#0x7f
    156              Delay_10us();
   \   000012                ; Setup parameters for call to function Onboard_wait
   \   000012   12....       LCALL   ?Subroutine2 & 0xFFFF
    157              Delay_10us();                        
    158              Delay_10us();
    159              Delay_10us();  //高电平，延时40us等待
   \                     ??CrossCallReturnLabel_1:
   \   000015                ; Setup parameters for call to function Onboard_wait
   \   000015   7A0A         MOV     R2,#0xa
   \   000017   7B00         MOV     R3,#0x0
   \   000019   12....       LCALL   ??Onboard_wait?relay
    160              if(!DATA_PIN) //如果电平变低，则证明检测到开始信号
   \   00001C   A287         MOV     C,0x80.7
   \   00001E   5003         JNC     $+5
   \   000020   02....       LJMP    ??DHT11_0 & 0xFFFF
    161              {
    162                  ucharFLAG=2; 
   \   000023   90....       MOV     DPTR,#ucharFLAG
   \   000026   7402         MOV     A,#0x2
   \   000028   F0           MOVX    @DPTR,A
    163                  while((!DATA_PIN)&&ucharFLAG++);//低电平，等待响应结束
   \                     ??DHT11_1:
   \   000029   A287         MOV     C,0x80.7
   \   00002B   4005         JC      ??DHT11_2
   \   00002D   12....       LCALL   ?Subroutine4 & 0xFFFF
   \                     ??CrossCallReturnLabel_8:
   \   000030   70F7         JNZ     ??DHT11_1
    164                  ucharFLAG=2;
   \                     ??DHT11_2:
   \   000032   7402         MOV     A,#0x2
   \   000034   F0           MOVX    @DPTR,A
    165                  while((DATA_PIN)&&ucharFLAG++); //高电平，准备输出
   \                     ??DHT11_3:
   \   000035   A287         MOV     C,0x80.7
   \   000037   5005         JNC     ??DHT11_4
   \   000039   12....       LCALL   ?Subroutine4 & 0xFFFF
   \                     ??CrossCallReturnLabel_9:
   \   00003C   70F7         JNZ     ??DHT11_3
    166                  COM();
   \                     ??DHT11_4:
   \   00003E                ; Setup parameters for call to function COM
   \   00003E   12....       LCALL   ??COM?relay
    167                  ucharRH_data_H_temp=ucharcomdata;//湿度高八位
   \   000041   90....       MOV     DPTR,#ucharcomdata
   \   000044   E0           MOVX    A,@DPTR
   \   000045   90....       MOV     DPTR,#ucharRH_data_H_temp
   \   000048   12....       LCALL   ?Subroutine3 & 0xFFFF
    168                  COM();
    169                  ucharRH_data_L_temp=ucharcomdata;//湿度低八位
   \                     ??CrossCallReturnLabel_2:
   \   00004B   90....       MOV     DPTR,#ucharRH_data_L_temp
   \   00004E   12....       LCALL   ?Subroutine3 & 0xFFFF
    170                  COM();
    171                  ucharT_data_H_temp=ucharcomdata;//温度高八位
   \                     ??CrossCallReturnLabel_3:
   \   000051   90....       MOV     DPTR,#ucharT_data_H_temp
   \   000054   12....       LCALL   ?Subroutine3 & 0xFFFF
    172                  COM();
    173                  ucharT_data_L_temp=ucharcomdata;//温度低八位
   \                     ??CrossCallReturnLabel_4:
   \   000057   90....       MOV     DPTR,#ucharT_data_L_temp
   \   00005A   12....       LCALL   ?Subroutine3 & 0xFFFF
    174                  COM();
    175                  ucharcheckdata_temp=ucharcomdata;//校验八位
   \                     ??CrossCallReturnLabel_5:
   \   00005D   90....       MOV     DPTR,#ucharcheckdata_temp
   \   000060   F0           MOVX    @DPTR,A
    176                  DATA_PIN=1; //置高，空闲状态
   \   000061   D287         SETB    0x80.7
    177                  uchartemp=(ucharT_data_H_temp+ucharT_data_L_temp+ucharRH_data_H_temp+ucharRH_data_L_temp);
   \   000063   90....       MOV     DPTR,#ucharRH_data_L_temp
   \   000066   C082         PUSH    DPL
   \   000068   C083         PUSH    DPH
   \   00006A   90....       MOV     DPTR,#ucharRH_data_H_temp
   \   00006D   C082         PUSH    DPL
   \   00006F   C083         PUSH    DPH
   \   000071   90....       MOV     DPTR,#ucharT_data_L_temp
   \   000074   C082         PUSH    DPL
   \   000076   90....       MOV     DPTR,#ucharT_data_H_temp
   \   000079   E0           MOVX    A,@DPTR
   \   00007A   7583..       MOV     DPH,#(ucharT_data_L_temp >> 8) & 0xff
   \   00007D   D082         POP     DPL
   \   00007F   F8           MOV     R0,A
   \   000080   E0           MOVX    A,@DPTR
   \   000081   28           ADD     A,R0
   \   000082   D083         POP     DPH
   \   000084   D082         POP     DPL
   \   000086   F8           MOV     R0,A
   \   000087   E0           MOVX    A,@DPTR
   \   000088   28           ADD     A,R0
   \   000089   D083         POP     DPH
   \   00008B   D082         POP     DPL
   \   00008D   F8           MOV     R0,A
   \   00008E   E0           MOVX    A,@DPTR
   \   00008F   28           ADD     A,R0
   \   000090   90....       MOV     DPTR,#uchartemp
   \   000093   F0           MOVX    @DPTR,A
    178                  if(uchartemp==ucharcheckdata_temp)//校验
   \   000094   F8           MOV     R0,A
   \   000095   90....       MOV     DPTR,#ucharcheckdata_temp
   \   000098   E0           MOVX    A,@DPTR
   \   000099   68           XRL     A,R0
   \   00009A   7028         JNZ     ??DHT11_5
    179                  {
    180                      ucharRH_data_H=ucharRH_data_H_temp;
   \   00009C   90....       MOV     DPTR,#ucharRH_data_H_temp
   \   00009F   E0           MOVX    A,@DPTR
   \   0000A0   90....       MOV     DPTR,#ucharRH_data_H
   \   0000A3   F0           MOVX    @DPTR,A
    181                      ucharRH_data_L=ucharRH_data_L_temp;
   \   0000A4   90....       MOV     DPTR,#ucharRH_data_L_temp
   \   0000A7   E0           MOVX    A,@DPTR
   \   0000A8   90....       MOV     DPTR,#ucharRH_data_L
   \   0000AB   F0           MOVX    @DPTR,A
    182                      ucharT_data_H=ucharT_data_H_temp;
   \   0000AC   90....       MOV     DPTR,#ucharT_data_H_temp
   \   0000AF   E0           MOVX    A,@DPTR
   \   0000B0   90....       MOV     DPTR,#ucharT_data_H
   \   0000B3   F0           MOVX    @DPTR,A
    183                      ucharT_data_L=ucharT_data_L_temp;
   \   0000B4   90....       MOV     DPTR,#ucharT_data_L_temp
   \   0000B7   E0           MOVX    A,@DPTR
   \   0000B8   90....       MOV     DPTR,#ucharT_data_L
   \   0000BB   F0           MOVX    @DPTR,A
    184                      ucharcheckdata=ucharcheckdata_temp;
   \   0000BC   90....       MOV     DPTR,#ucharcheckdata_temp
   \   0000BF   E0           MOVX    A,@DPTR
   \   0000C0   90....       MOV     DPTR,#ucharcheckdata
   \   0000C3   F0           MOVX    @DPTR,A
    185                  }
    186                  wendu_shi=ucharT_data_H/10; 
   \                     ??DHT11_5:
   \   0000C4   75F00A       MOV     B,#0xa
   \   0000C7   90....       MOV     DPTR,#ucharT_data_H
   \   0000CA   E0           MOVX    A,@DPTR
   \   0000CB   84           DIV     AB
   \   0000CC   90....       MOV     DPTR,#wendu_shi
   \   0000CF   F0           MOVX    @DPTR,A
    187                  wendu_ge=ucharT_data_H%10;
   \   0000D0   90....       MOV     DPTR,#ucharT_data_H
   \   0000D3   E0           MOVX    A,@DPTR
   \   0000D4   75F00A       MOV     B,#0xa
   \   0000D7   84           DIV     AB
   \   0000D8   E5F0         MOV     A,B
   \   0000DA   90....       MOV     DPTR,#wendu_ge
   \   0000DD   F0           MOVX    @DPTR,A
    188                  
    189                  shidu_shi=ucharRH_data_H/10; 
   \   0000DE   75F00A       MOV     B,#0xa
   \   0000E1   90....       MOV     DPTR,#ucharRH_data_H
   \   0000E4   E0           MOVX    A,@DPTR
   \   0000E5   84           DIV     AB
   \   0000E6   90....       MOV     DPTR,#shidu_shi
   \   0000E9   F0           MOVX    @DPTR,A
    190                  shidu_ge=ucharRH_data_H%10;        
   \   0000EA   90....       MOV     DPTR,#ucharRH_data_H
   \   0000ED   E0           MOVX    A,@DPTR
   \   0000EE   75F00A       MOV     B,#0xa
   \   0000F1   84           DIV     AB
   \   0000F2   E5F0         MOV     A,B
   \   0000F4   800D         SJMP    ??DHT11_6
    191              } 
    192              else //没用成功读取，返回0
    193              {
    194                  wendu_shi=0; 
   \                     ??DHT11_0:
   \   0000F6   90....       MOV     DPTR,#wendu_shi
   \   0000F9   E4           CLR     A
   \   0000FA   F0           MOVX    @DPTR,A
    195                  wendu_ge=0;
   \   0000FB   90....       MOV     DPTR,#wendu_ge
   \   0000FE   F0           MOVX    @DPTR,A
    196                  
    197                  shidu_shi=0; 
   \   0000FF   90....       MOV     DPTR,#shidu_shi
   \   000102   F0           MOVX    @DPTR,A
    198                  shidu_ge=0;  
   \                     ??DHT11_6:
   \   000103   90....       MOV     DPTR,#shidu_ge
   \   000106   F0           MOVX    @DPTR,A
    199              } 
    200              
    201              P0DIR |= 0x80; //IO口需要重新配置 
   \   000107   43FD80       ORL     0xfd,#0x80
    202          }
   \   00010A   02....       LJMP    ??Subroutine5_0 & 0xFFFF
   \   00010D                REQUIRE _A_P0
   \   00010D                REQUIRE P0DIR

   \                                 In  segment BANKED_CODE, align 1, keep-with-next
   \                     ?Subroutine3:
   \   000000   F0           MOVX    @DPTR,A
   \   000001                ; Setup parameters for call to function COM
   \   000001                ; Setup parameters for call to function COM
   \   000001                ; Setup parameters for call to function COM
   \   000001                ; Setup parameters for call to function COM
   \   000001   12....       LCALL   ??COM?relay
   \   000004   90....       MOV     DPTR,#ucharcomdata
   \   000007   E0           MOVX    A,@DPTR
   \   000008   22           RET

   \                                 In  segment BANKED_CODE, align 1, keep-with-next
    203          void GenericApp_Init( uint8 task_id )
   \                     GenericApp_Init:
    204          {
   \   000000   74F7         MOV     A,#-0x9
   \   000002   12....       LCALL   ?BANKED_ENTER_XDATA
   \   000005                ; Saved register size: 9
   \   000005                ; Auto size: 0
   \   000005   E9           MOV     A,R1
    205            
    206            halUARTCfg_t uartConfig;
    207            GenericApp_TaskID = task_id;
   \   000006   90....       MOV     DPTR,#GenericApp_TaskID
   \   000009   F0           MOVX    @DPTR,A
    208            GenericApp_TransID = 0;
   \   00000A   90....       MOV     DPTR,#GenericApp_TransID
   \   00000D   E4           CLR     A
   \   00000E   F0           MOVX    @DPTR,A
    209          
    210            GenericApp_epDesc.endPoint = GENERICAPP_ENDPOINT;
   \   00000F   90....       MOV     DPTR,#GenericApp_epDesc
   \   000012   740A         MOV     A,#0xa
   \   000014   F0           MOVX    @DPTR,A
    211            GenericApp_epDesc.task_id = &GenericApp_TaskID;
   \   000015   A3           INC     DPTR
   \   000016   74..         MOV     A,#GenericApp_TaskID & 0xff
   \   000018   F0           MOVX    @DPTR,A
   \   000019   A3           INC     DPTR
   \   00001A   74..         MOV     A,#(GenericApp_TaskID >> 8) & 0xff
   \   00001C   F0           MOVX    @DPTR,A
    212            GenericApp_epDesc.simpleDesc
    213                      = (SimpleDescriptionFormat_t *)&GenericApp_SimpleDesc;
   \   00001D   A3           INC     DPTR
   \   00001E   74..         MOV     A,#GenericApp_SimpleDesc & 0xff
   \   000020   F0           MOVX    @DPTR,A
   \   000021   A3           INC     DPTR
   \   000022   74..         MOV     A,#(GenericApp_SimpleDesc >> 8) & 0xff
   \   000024   F0           MOVX    @DPTR,A
    214            GenericApp_epDesc.latencyReq = noLatencyReqs;
   \   000025   A3           INC     DPTR
   \   000026   E4           CLR     A
   \   000027   F0           MOVX    @DPTR,A
    215            afRegister( &GenericApp_epDesc );
   \   000028                ; Setup parameters for call to function afRegister
   \   000028   7A..         MOV     R2,#GenericApp_epDesc & 0xff
   \   00002A   7B..         MOV     R3,#(GenericApp_epDesc >> 8) & 0xff
   \   00002C   12....       LCALL   ??afRegister?relay
    216          
    217           // uartConfig.configured=TRUE;
    218           // uartConfig.baudRate=HAL_UART_BR_9600;
    219           // uartConfig.flowControl=FALSE;
    220            //uartConfig.callBackFunc=NULL;
    221            //HalUARTOpen(0,&uartConfig);
    222          }
   \   00002F   02....       LJMP    ?Subroutine1 & 0xFFFF
    223          
    224          

   \                                 In  segment BANKED_CODE, align 1, keep-with-next
    225          void GenericApp_SendTheMessage(void)
   \                     GenericApp_SendTheMessage:
    226          {
   \   000000   74F6         MOV     A,#-0xa
   \   000002   12....       LCALL   ?BANKED_ENTER_XDATA
   \   000005                ; Saved register size: 10
   \   000005                ; Auto size: 12
   \   000005   74F4         MOV     A,#-0xc
   \   000007   12....       LCALL   ?ALLOC_XSTACK8
    227           
    228           afAddrType_t my_DstAddr;
    229           my_DstAddr.addrMode=(afAddrMode_t)AddrBroadcast;
   \   00000A   7408         MOV     A,#0x8
   \   00000C   12....       LCALL   ?XSTACK_DISP0_8
   \   00000F   740F         MOV     A,#0xf
   \   000011   F0           MOVX    @DPTR,A
    230           my_DstAddr.endPoint=GENERICAPP_ENDPOINT;
   \   000012   7409         MOV     A,#0x9
   \   000014   12....       LCALL   ?XSTACK_DISP0_8
   \   000017   740A         MOV     A,#0xa
   \   000019   F0           MOVX    @DPTR,A
    231           my_DstAddr.addr.shortAddr=0x0000;
   \   00001A   85..82       MOV     DPL,?XSP + 0
   \   00001D   85..83       MOV     DPH,?XSP + 1
   \   000020   E4           CLR     A
   \   000021   F0           MOVX    @DPTR,A
   \   000022   A3           INC     DPTR
   \   000023   F0           MOVX    @DPTR,A
    232           
    233           DHT11();
   \   000024                ; Setup parameters for call to function DHT11
   \   000024   12....       LCALL   ??DHT11?relay
    234           wen[0]=wendu_shi;
   \   000027   90....       MOV     DPTR,#wendu_shi
   \   00002A   E0           MOVX    A,@DPTR
   \   00002B   90....       MOV     DPTR,#wen
   \   00002E   F0           MOVX    @DPTR,A
    235           wen[1]=wendu_ge;
   \   00002F   90....       MOV     DPTR,#wendu_ge
   \   000032   E0           MOVX    A,@DPTR
   \   000033   90....       MOV     DPTR,#wen + 1
   \   000036   F0           MOVX    @DPTR,A
    236           wen[2]=' ';
   \   000037   A3           INC     DPTR
   \   000038   7420         MOV     A,#0x20
   \   00003A   F0           MOVX    @DPTR,A
    237           wen[3]=' ';
   \   00003B   A3           INC     DPTR
   \   00003C   F0           MOVX    @DPTR,A
    238           wen[4]= shidu_shi;
   \   00003D   90....       MOV     DPTR,#shidu_shi
   \   000040   E0           MOVX    A,@DPTR
   \   000041   90....       MOV     DPTR,#wen + 4
   \   000044   F0           MOVX    @DPTR,A
    239           wen[5]=shidu_ge;
   \   000045   90....       MOV     DPTR,#shidu_ge
   \   000048   E0           MOVX    A,@DPTR
   \   000049   90....       MOV     DPTR,#wen + 5
   \   00004C   F0           MOVX    @DPTR,A
    240           
    241           AF_DataRequest( &my_DstAddr, &GenericApp_epDesc,
    242                                 GENERICAPP_CLUSTERID,
    243                                 osal_strlen(wen)+1,       // 十二个字符
                                                    ^
Warning[Pe167]: argument of type "unsigned char *" is incompatible with
          parameter of type "char *"
    244                                 wen,
    245                                //theMessageData,
    246                                 &GenericApp_TransID,
    247                                 AF_DISCV_ROUTE, AF_DEFAULT_RADIUS);
   \   00004D                ; Setup parameters for call to function AF_DataRequest
   \   00004D   75..1E       MOV     ?V0 + 0,#0x1e
   \   000050   78..         MOV     R0,#?V0 + 0
   \   000052   12....       LCALL   ?PUSH_XSTACK_I_ONE
   \   000055   75....       MOV     ?V0 + 0,#GenericApp_TransID & 0xff
   \   000058   75....       MOV     ?V0 + 1,#(GenericApp_TransID >> 8) & 0xff
   \   00005B   78..         MOV     R0,#?V0 + 0
   \   00005D   12....       LCALL   ?PUSH_XSTACK_I_TWO
   \   000060   75....       MOV     ?V0 + 0,#wen & 0xff
   \   000063   75....       MOV     ?V0 + 1,#(wen >> 8) & 0xff
   \   000066   78..         MOV     R0,#?V0 + 0
   \   000068   12....       LCALL   ?PUSH_XSTACK_I_TWO
   \   00006B                ; Setup parameters for call to function osal_strlen
   \   00006B   7A..         MOV     R2,#wen & 0xff
   \   00006D   7B..         MOV     R3,#(wen >> 8) & 0xff
   \   00006F   12....       LCALL   ??osal_strlen?relay
   \   000072   EA           MOV     A,R2
   \   000073   2401         ADD     A,#0x1
   \   000075   F5..         MOV     ?V0 + 0,A
   \   000077   EB           MOV     A,R3
   \   000078   3400         ADDC    A,#0x0
   \   00007A   F5..         MOV     ?V0 + 1,A
   \   00007C   78..         MOV     R0,#?V0 + 0
   \   00007E   12....       LCALL   ?PUSH_XSTACK_I_TWO
   \   000081   75..01       MOV     ?V0 + 0,#0x1
   \   000084   75..00       MOV     ?V0 + 1,#0x0
   \   000087   78..         MOV     R0,#?V0 + 0
   \   000089   12....       LCALL   ?PUSH_XSTACK_I_TWO
   \   00008C   7920         MOV     R1,#0x20
   \   00008E   7C..         MOV     R4,#GenericApp_epDesc & 0xff
   \   000090   7D..         MOV     R5,#(GenericApp_epDesc >> 8) & 0xff
   \   000092   7409         MOV     A,#0x9
   \   000094   12....       LCALL   ?XSTACK_DISP0_8
   \   000097   AA82         MOV     R2,DPL
   \   000099   AB83         MOV     R3,DPH
   \   00009B   12....       LCALL   ??AF_DataRequest?relay
   \   00009E   7409         MOV     A,#0x9
   \   0000A0   12....       LCALL   ?DEALLOC_XSTACK8
    248           
    249           HalLedBlink(HAL_LED_2,1,50,500);
   \   0000A3                ; Setup parameters for call to function HalLedBlink
   \   0000A3   7CF4         MOV     R4,#-0xc
   \   0000A5   7D01         MOV     R5,#0x1
   \   0000A7   7B32         MOV     R3,#0x32
   \   0000A9   7A01         MOV     R2,#0x1
   \   0000AB   7902         MOV     R1,#0x2
   \   0000AD   12....       LCALL   ??HalLedBlink?relay
    250          }
   \   0000B0   740C         MOV     A,#0xc
   \   0000B2   12....       LCALL   ?DEALLOC_XSTACK8
   \   0000B5   7F02         MOV     R7,#0x2
   \   0000B7   02....       LJMP    ?BANKED_LEAVE_XDATA
    251          

   \                                 In  segment BANKED_CODE, align 1, keep-with-next
    252          UINT16 GenericApp_ProcessEvent( uint8 task_id, uint16 events )
   \                     GenericApp_ProcessEvent:
    253          {
   \   000000   74F1         MOV     A,#-0xf
   \   000002   12....       LCALL   ?BANKED_ENTER_XDATA
   \   000005                ; Saved register size: 15
   \   000005                ; Auto size: 16
   \   000005   74F0         MOV     A,#-0x10
   \   000007   12....       LCALL   ?ALLOC_XSTACK8
   \   00000A   EA           MOV     A,R2
   \   00000B   FE           MOV     R6,A
   \   00000C   EB           MOV     A,R3
   \   00000D   FF           MOV     R7,A
    254            afIncomingMSGPacket_t *MSGpkt;
    255          
    256            if ( events & SYS_EVENT_MSG )
   \   00000E   5480         ANL     A,#0x80
   \   000010   7003         JNZ     $+5
   \   000012   02....       LJMP    ??GenericApp_ProcessEvent_0 & 0xFFFF
    257            {
    258              MSGpkt = (afIncomingMSGPacket_t *)osal_msg_receive( GenericApp_TaskID );
   \   000015                ; Setup parameters for call to function osal_msg_receive
   \   000015   802A         SJMP    ??GenericApp_ProcessEvent_1
    259              while ( MSGpkt )
    260              {
    261                switch ( MSGpkt->hdr.event )
    262                {
    263          
    264                  case AF_INCOMING_MSG_CMD:
    265                    GenericApp_MessageMSGCB( MSGpkt );
    266                    break;
    267                    
    268                  case ZDO_STATE_CHANGE:
    269                    GnenricApp_NwkState=(devStates_t)(MSGpkt->hdr.status);
   \                     ??GenericApp_ProcessEvent_2:
   \   000017   A3           INC     DPTR
   \   000018   E0           MOVX    A,@DPTR
   \   000019   90....       MOV     DPTR,#GnenricApp_NwkState
   \   00001C   F0           MOVX    @DPTR,A
    270                    if(GnenricApp_NwkState==DEV_END_DEVICE)
   \   00001D   6406         XRL     A,#0x6
   \   00001F   7019         JNZ     ??GenericApp_ProcessEvent_3
    271                    {  HalLedBlink(HAL_LED_2,0,50,500);
   \   000021                ; Setup parameters for call to function HalLedBlink
   \   000021   7CF4         MOV     R4,#-0xc
   \   000023   7D01         MOV     R5,#0x1
   \   000025   7B32         MOV     R3,#0x32
   \   000027   7A00         MOV     R2,#0x0
   \   000029   7902         MOV     R1,#0x2
   \   00002B   12....       LCALL   ??HalLedBlink?relay
    272                       osal_set_event(GenericApp_TaskID,SEND_DATA_EVENT);
   \   00002E                ; Setup parameters for call to function osal_set_event
   \   00002E   7A01         MOV     R2,#0x1
   \   000030   7B00         MOV     R3,#0x0
   \   000032   90....       MOV     DPTR,#GenericApp_TaskID
   \   000035   E0           MOVX    A,@DPTR
   \   000036   F9           MOV     R1,A
   \   000037   12....       LCALL   ??osal_set_event?relay
    273                       
    274                    }
    275          
    276                  default:
    277                    break;
    278                }
    279          
    280                osal_msg_deallocate( (uint8 *)MSGpkt );
   \                     ??GenericApp_ProcessEvent_3:
   \   00003A                ; Setup parameters for call to function osal_msg_deallocate
   \   00003A   AA..         MOV     R2,?V0 + 0
   \   00003C   AB..         MOV     R3,?V0 + 1
   \   00003E   12....       LCALL   ??osal_msg_deallocate?relay
    281                MSGpkt = (afIncomingMSGPacket_t *)osal_msg_receive( GenericApp_TaskID );
   \   000041                ; Setup parameters for call to function osal_msg_receive
   \                     ??GenericApp_ProcessEvent_1:
   \   000041   90....       MOV     DPTR,#GenericApp_TaskID
   \   000044   E0           MOVX    A,@DPTR
   \   000045   F9           MOV     R1,A
   \   000046   12....       LCALL   ??osal_msg_receive?relay
   \   000049   8A..         MOV     ?V0 + 0,R2
   \   00004B   8B..         MOV     ?V0 + 1,R3
   \   00004D   E5..         MOV     A,?V0 + 0
   \   00004F   45..         ORL     A,?V0 + 1
   \   000051   6063         JZ      ??GenericApp_ProcessEvent_4
   \   000053   85..82       MOV     DPL,?V0 + 0
   \   000056   85..83       MOV     DPH,?V0 + 1
   \   000059   E0           MOVX    A,@DPTR
   \   00005A   24E6         ADD     A,#-0x1a
   \   00005C   6006         JZ      ??GenericApp_ProcessEvent_5
   \   00005E   2449         ADD     A,#0x49
   \   000060   60B5         JZ      ??GenericApp_ProcessEvent_2
   \   000062   80D6         SJMP    ??GenericApp_ProcessEvent_3
   \                     ??GenericApp_ProcessEvent_5:
   \   000064                ; Setup parameters for call to function HalLedBlink
   \   000064   7CF4         MOV     R4,#-0xc
   \   000066   7D01         MOV     R5,#0x1
   \   000068   7B32         MOV     R3,#0x32
   \   00006A   7A00         MOV     R2,#0x0
   \   00006C   7902         MOV     R1,#0x2
   \   00006E   12....       LCALL   ??HalLedBlink?relay
   \   000071   85..82       MOV     DPL,?V0 + 0
   \   000074   85..83       MOV     DPH,?V0 + 1
   \   000077   A3           INC     DPTR
   \   000078   A3           INC     DPTR
   \   000079   A3           INC     DPTR
   \   00007A   A3           INC     DPTR
   \   00007B   E0           MOVX    A,@DPTR
   \   00007C   6401         XRL     A,#0x1
   \   00007E   7002         JNZ     ??GenericApp_ProcessEvent_6
   \   000080   A3           INC     DPTR
   \   000081   E0           MOVX    A,@DPTR
   \                     ??GenericApp_ProcessEvent_6:
   \   000082   70B6         JNZ     ??GenericApp_ProcessEvent_3
   \   000084                ; Setup parameters for call to function osal_memcpy
   \   000084   E5..         MOV     A,?V0 + 0
   \   000086   2422         ADD     A,#0x22
   \   000088   F582         MOV     DPL,A
   \   00008A   E5..         MOV     A,?V0 + 1
   \   00008C   3400         ADDC    A,#0x0
   \   00008E   F583         MOV     DPH,A
   \   000090   E0           MOVX    A,@DPTR
   \   000091   F5..         MOV     ?V0 + 4,A
   \   000093   A3           INC     DPTR
   \   000094   E0           MOVX    A,@DPTR
   \   000095   F5..         MOV     ?V0 + 5,A
   \   000097   75..00       MOV     ?V0 + 6,#0x0
   \   00009A   78..         MOV     R0,#?V0 + 4
   \   00009C   12....       LCALL   ?PUSH_XSTACK_I_THREE
   \   00009F   7C10         MOV     R4,#0x10
   \   0000A1   7D00         MOV     R5,#0x0
   \   0000A3   7403         MOV     A,#0x3
   \   0000A5   12....       LCALL   ?XSTACK_DISP0_8
   \   0000A8   AA82         MOV     R2,DPL
   \   0000AA   AB83         MOV     R3,DPH
   \   0000AC   12....       LCALL   ??osal_memcpy?relay
   \   0000AF   7403         MOV     A,#0x3
   \   0000B1   12....       LCALL   ?DEALLOC_XSTACK8
   \   0000B4   8084         SJMP    ??GenericApp_ProcessEvent_3
    282              }
    283          
    284              return (events ^ SYS_EVENT_MSG);
   \                     ??GenericApp_ProcessEvent_4:
   \   0000B6   EE           MOV     A,R6
   \   0000B7   FA           MOV     R2,A
   \   0000B8   EF           MOV     A,R7
   \   0000B9   6480         XRL     A,#0x80
   \                     ??GenericApp_ProcessEvent_7:
   \   0000BB   FB           MOV     R3,A
   \   0000BC   8023         SJMP    ??GenericApp_ProcessEvent_8
    285            }
    286            
    287            if(events&SEND_DATA_EVENT)
   \                     ??GenericApp_ProcessEvent_0:
   \   0000BE   EE           MOV     A,R6
   \   0000BF   A2E0         MOV     C,0xE0 /* A   */.0
   \   0000C1   501A         JNC     ??GenericApp_ProcessEvent_9
    288            {
    289                GenericApp_SendTheMessage();
   \   0000C3                ; Setup parameters for call to function GenericApp_SendTheMessage
   \   0000C3   12....       LCALL   ??GenericApp_SendTheMessage?relay
    290                osal_start_timerEx(GenericApp_TaskID,SEND_DATA_EVENT,1000);
   \   0000C6                ; Setup parameters for call to function osal_start_timerEx
   \   0000C6   7CE8         MOV     R4,#-0x18
   \   0000C8   7D03         MOV     R5,#0x3
   \   0000CA   7A01         MOV     R2,#0x1
   \   0000CC   7B00         MOV     R3,#0x0
   \   0000CE   90....       MOV     DPTR,#GenericApp_TaskID
   \   0000D1   E0           MOVX    A,@DPTR
   \   0000D2   F9           MOV     R1,A
   \   0000D3   12....       LCALL   ??osal_start_timerEx?relay
    291                return(events^SEND_DATA_EVENT);
   \   0000D6   EE           MOV     A,R6
   \   0000D7   6401         XRL     A,#0x1
   \   0000D9   FA           MOV     R2,A
   \   0000DA   EF           MOV     A,R7
   \   0000DB   80DE         SJMP    ??GenericApp_ProcessEvent_7
    292            
    293            }
    294            return 0;
   \                     ??GenericApp_ProcessEvent_9:
   \   0000DD   7A00         MOV     R2,#0x0
   \   0000DF   7B00         MOV     R3,#0x0
   \                     ??GenericApp_ProcessEvent_8:
   \   0000E1   7410         MOV     A,#0x10
   \   0000E3   12....       LCALL   ?DEALLOC_XSTACK8
   \   0000E6   7F07         MOV     R7,#0x7
   \   0000E8   02....       LJMP    ?BANKED_LEAVE_XDATA
    295          }

   \                                 In  segment XDATA_ID, align 1, keep-with-next
   \                     `?<Initializer for wendu_ge>`:
   \   000000   04           DB 4

   \                                 In  segment BANK_RELAYS, align 1
   \                     ??Delay_us?relay:
   \   000000   12....       LCALL   ?BDISPATCH
   \   000003   ......       DC24    Delay_us

   \                                 In  segment BANK_RELAYS, align 1
   \                     ??Delay_10us?relay:
   \   000000   12....       LCALL   ?BDISPATCH
   \   000003   ......       DC24    Delay_10us

   \                                 In  segment BANK_RELAYS, align 1
   \                     ??Delay_ms?relay:
   \   000000   12....       LCALL   ?BDISPATCH
   \   000003   ......       DC24    Delay_ms

   \                                 In  segment BANK_RELAYS, align 1
   \                     ??COM?relay:
   \   000000   12....       LCALL   ?BDISPATCH
   \   000003   ......       DC24    COM

   \                                 In  segment BANK_RELAYS, align 1
   \                     ??DHT11?relay:
   \   000000   12....       LCALL   ?BDISPATCH
   \   000003   ......       DC24    DHT11

   \                                 In  segment BANK_RELAYS, align 1
   \                     ??GenericApp_Init?relay:
   \   000000   12....       LCALL   ?BDISPATCH
   \   000003   ......       DC24    GenericApp_Init

   \                                 In  segment BANK_RELAYS, align 1
   \                     ??GenericApp_SendTheMessage?relay:
   \   000000   12....       LCALL   ?BDISPATCH
   \   000003   ......       DC24    GenericApp_SendTheMessage

   \                                 In  segment BANK_RELAYS, align 1
   \                     ??GenericApp_ProcessEvent?relay:
   \   000000   12....       LCALL   ?BDISPATCH
   \   000003   ......       DC24    GenericApp_ProcessEvent
    296          
    297          static void GenericApp_MessageMSGCB( afIncomingMSGPacket_t *pkt )
    298          {
    299            HalLedBlink(HAL_LED_2,0,50,500);
    300            unsigned char buffer[16];
    301            switch ( pkt->clusterId )
    302            {
    303              case GENERICAPP_CLUSTERID:
    304                 
    305                   osal_memcpy(buffer,pkt->cmd.Data,16);
    306                   
    307                   //HalUARTWrite(0,buffer,16);     
    308                  
    309                   break;
    310            }
    311          }
    312          
    313          
    314          

   Maximum stack usage in bytes:

     Function                       ISTACK PSTACK XSTACK
     --------                       ------ ------ ------
     COM                                2      0      9
       -> Onboard_wait                  0      0     18
       -> Onboard_wait                  0      0     18
       -> Onboard_wait                  0      0     18
     DHT11                              8      0     22
       -> Delay_ms                      4      0      0
       -> Onboard_wait                  4      0      0
       -> Onboard_wait                  4      0      0
       -> Onboard_wait                  4      0      0
       -> Onboard_wait                  4      0      0
       -> COM                           4      0      0
       -> COM                           4      0      0
       -> COM                           4      0      0
       -> COM                           4      0      0
       -> COM                           4      0      0
     Delay_10us                         2      0      0
       -> Onboard_wait                  4      0      0
     Delay_ms                           0      0      9
       -> Onboard_wait                  0      0     18
     Delay_us                           2      0      0
       -> Onboard_wait                  4      0      0
     GenericApp_Init                    0      0      9
       -> afRegister                    0      0     18
     GenericApp_ProcessEvent            0      0     34
       -> osal_msg_receive              0      0     62
       -> HalLedBlink                   0      0     62
       -> osal_set_event                0      0     62
       -> osal_msg_deallocate           0      0     62
       -> osal_msg_receive              0      0     62
       -> HalLedBlink                   0      0     62
       -> osal_memcpy                   0      0     68
       -> GenericApp_SendTheMessage     0      0     62
       -> osal_start_timerEx            0      0     62
     GenericApp_SendTheMessage          0      0     62
       -> DHT11                         0      0     44
       -> osal_strlen                   0      0     54
       -> AF_DataRequest                0      0     62
       -> HalLedBlink                   0      0     44


   Segment part sizes:

     Function/Label                    Bytes
     --------------                    -----
     _A_P0                                1
     P0DIR                                1
     ucharFLAG                            1
     uchartemp                            1
     shidu_shi                            1
     shidu_ge                             1
     wendu_shi                            1
     wendu_ge                             1
     ucharT_data_H                        1
     ucharT_data_L                        1
     ucharRH_data_H                       1
     ucharRH_data_L                       1
     ucharcheckdata                       1
     ucharT_data_H_temp                   1
     ucharT_data_L_temp                   1
     ucharRH_data_H_temp                  1
     ucharRH_data_L_temp                  1
     ucharcheckdata_temp                  1
     ucharcomdata                         1
     wen                                 10
     GenericApp_ClusterList               2
     GenericApp_SimpleDesc               12
     GenericApp_epDesc                    6
     GenericApp_TaskID                    1
     GenericApp_TransID                   1
     GnenricApp_NwkState                  1
     Delay_us                             6
     ?Subroutine0                         5
     ??Subroutine5_0                      7
     Delay_10us                           8
     Delay_ms                            43
     ?Subroutine1                         5
     COM                                 85
     ?Subroutine4                         8
     ?Subroutine2                        22
     DHT11                              269
     ?Subroutine3                         9
     GenericApp_Init                     50
     GenericApp_SendTheMessage          186
     GenericApp_ProcessEvent            235
     ?<Initializer for wendu_ge>          1
     ??Delay_us?relay                     6
     ??Delay_10us?relay                   6
     ??Delay_ms?relay                     6
     ??COM?relay                          6
     ??DHT11?relay                        6
     ??GenericApp_Init?relay              6
     ??GenericApp_SendTheMessage?relay    6
     ??GenericApp_ProcessEvent?relay      6

 
 938 bytes in segment BANKED_CODE
  48 bytes in segment BANK_RELAYS
   2 bytes in segment SFR_AN
   1 byte  in segment XDATA_I
   1 byte  in segment XDATA_ID
  14 bytes in segment XDATA_ROM_C
  35 bytes in segment XDATA_Z
 
 987 bytes of CODE  memory
  14 bytes of CONST memory
   0 bytes of DATA  memory (+ 2 bytes shared)
  36 bytes of XDATA memory

Errors: none
Warnings: 1
