###############################################################################
#                                                                             #
# IAR C/C++ Compiler V8.10.1.10194/W32 for 8051         17/Feb/2018  13:55:43 #
# Copyright 2004-2011 IAR Systems AB.                                         #
#                                                                             #
#    Core               =  plain                                              #
#    Code model         =  banked                                             #
#    Data model         =  large                                              #
#    Calling convention =  xdata reentrant                                    #
#    Constant location  =  data_rom                                           #
#    Dptr setup         =  1,16                                               #
#    Source file        =  C:\Texas Instruments\ZStack-CC2530-2.5.1a\Projects #
#                          \zstack\Samples\GenericApp\Source\Enddevice.c      #
#    Command line       =  -f "C:\Texas Instruments\ZStack-CC2530-2.5.1a\Proj #
#                          ects\zstack\Samples\GenericApp\CC2530DB\..\..\..\T #
#                          ools\CC2530DB\f8wEndev.cfg" (-DCPU32MHZ            #
#                          -DROOT=__near_func -DMAC_CFG_TX_DATA_MAX=3         #
#                          -DMAC_CFG_TX_MAX=6 -DMAC_CFG_RX_MAX=3) -f          #
#                          "C:\Texas Instruments\ZStack-CC2530-2.5.1a\Project #
#                          s\zstack\Samples\GenericApp\CC2530DB\..\..\..\Tool #
#                          s\CC2530DB\f8wConfig.cfg" (-DZIGBEEPRO -DSECURE=0  #
#                          -DZG_SECURE_DYNAMIC=0 -DREFLECTOR                  #
#                          -DDEFAULT_CHANLIST=0x00000800                      #
#                          -DZDAPP_CONFIG_PAN_ID=0xFFFF                       #
#                          -DNWK_START_DELAY=100 -DEXTENDED_JOINING_RANDOM_MA #
#                          SK=0x007F -DBEACON_REQUEST_DELAY=100               #
#                          -DBEACON_REQ_DELAY_MASK=0x00FF                     #
#                          -DLINK_STATUS_JITTER_MASK=0x007F                   #
#                          -DROUTE_EXPIRY_TIME=30 -DAPSC_ACK_WAIT_DURATION_PO #
#                          LLED=3000 -DNWK_INDIRECT_MSG_TIMEOUT=7             #
#                          -DMAX_RREQ_ENTRIES=8 -DAPSC_MAX_FRAME_RETRIES=3    #
#                          -DNWK_MAX_DATA_RETRIES=2                           #
#                          -DMAX_POLL_FAILURE_RETRIES=2 -DMAX_BCAST=9         #
#                          -DAPS_MAX_GROUPS=16 -DMAX_RTG_ENTRIES=40           #
#                          -DNWK_MAX_BINDING_ENTRIES=4                        #
#                          -DMAX_BINDING_CLUSTER_IDS=4 "-DDEFAULT_KEY={0x01,  #
#                          0x03, 0x05, 0x07, 0x09, 0x0B, 0x0D, 0x0F, 0x00,    #
#                          0x02, 0x04, 0x06, 0x08, 0x0A, 0x0C, 0x0D}"         #
#                          -DMAC_MAX_FRAME_SIZE=116                           #
#                          -DZDNWKMGR_MIN_TRANSMISSIONS=20 "-DCONST=const     #
#                          __code" -DGENERIC=__generic                        #
#                          -DRFD_RCVC_ALWAYS_ON=FALSE -DPOLL_RATE=1000        #
#                          -DQUEUED_POLL_RATE=100 -DRESPONSE_POLL_RATE=100)   #
#                          -DREJOIN_POLL_RATE=440 "C:\Texas                   #
#                          Instruments\ZStack-CC2530-2.5.1a\Projects\zstack\S #
#                          amples\GenericApp\Source\Enddevice.c" -D           #
#                          NWK_AUTO_POLL -D ZTOOL_P1 -D MT_TASK -D            #
#                          MT_SYS_FUNC -D MT_ZDO_FUNC -D LCD_SUPPORTED=DEBUG  #
#                          -D xPOWER_SAVING -D HAL_UART=TRUE -lC "C:\Texas    #
#                          Instruments\ZStack-CC2530-2.5.1a\Projects\zstack\S #
#                          amples\GenericApp\CC2530DB\EndDeviceEB\List\" -lA  #
#                          "C:\Texas Instruments\ZStack-CC2530-2.5.1a\Project #
#                          s\zstack\Samples\GenericApp\CC2530DB\EndDeviceEB\L #
#                          ist\" --diag_suppress Pe001,Pa010 -o "C:\Texas     #
#                          Instruments\ZStack-CC2530-2.5.1a\Projects\zstack\S #
#                          amples\GenericApp\CC2530DB\EndDeviceEB\Obj\" -e    #
#                          --no_code_motion --debug --core=plain --dptr=16,1  #
#                          --data_model=large --code_model=banked             #
#                          --calling_convention=xdata_reentrant               #
#                          --place_constants=data_rom --nr_virtual_regs 16    #
#                          -I "C:\Texas Instruments\ZStack-CC2530-2.5.1a\Proj #
#                          ects\zstack\Samples\GenericApp\CC2530DB\" -I       #
#                          "C:\Texas Instruments\ZStack-CC2530-2.5.1a\Project #
#                          s\zstack\Samples\GenericApp\CC2530DB\..\Source\"   #
#                          -I "C:\Texas Instruments\ZStack-CC2530-2.5.1a\Proj #
#                          ects\zstack\Samples\GenericApp\CC2530DB\..\..\..\Z #
#                          Main\TI2530DB\" -I "C:\Texas                       #
#                          Instruments\ZStack-CC2530-2.5.1a\Projects\zstack\S #
#                          amples\GenericApp\CC2530DB\..\..\..\..\..\Componen #
#                          ts\hal\include\" -I "C:\Texas                      #
#                          Instruments\ZStack-CC2530-2.5.1a\Projects\zstack\S #
#                          amples\GenericApp\CC2530DB\..\..\..\..\..\Componen #
#                          ts\hal\target\CC2530EB\" -I "C:\Texas              #
#                          Instruments\ZStack-CC2530-2.5.1a\Projects\zstack\S #
#                          amples\GenericApp\CC2530DB\..\..\..\..\..\Componen #
#                          ts\mac\include\" -I "C:\Texas                      #
#                          Instruments\ZStack-CC2530-2.5.1a\Projects\zstack\S #
#                          amples\GenericApp\CC2530DB\..\..\..\..\..\Componen #
#                          ts\mac\high_level\" -I "C:\Texas                   #
#                          Instruments\ZStack-CC2530-2.5.1a\Projects\zstack\S #
#                          amples\GenericApp\CC2530DB\..\..\..\..\..\Componen #
#                          ts\mac\low_level\srf04\" -I "C:\Texas              #
#                          Instruments\ZStack-CC2530-2.5.1a\Projects\zstack\S #
#                          amples\GenericApp\CC2530DB\..\..\..\..\..\Componen #
#                          ts\mac\low_level\srf04\single_chip\" -I "C:\Texas  #
#                          Instruments\ZStack-CC2530-2.5.1a\Projects\zstack\S #
#                          amples\GenericApp\CC2530DB\..\..\..\..\..\Componen #
#                          ts\mt\" -I "C:\Texas Instruments\ZStack-CC2530-2.5 #
#                          .1a\Projects\zstack\Samples\GenericApp\CC2530DB\.. #
#                          \..\..\..\..\Components\osal\include\" -I          #
#                          "C:\Texas Instruments\ZStack-CC2530-2.5.1a\Project #
#                          s\zstack\Samples\GenericApp\CC2530DB\..\..\..\..\. #
#                          .\Components\services\saddr\" -I "C:\Texas         #
#                          Instruments\ZStack-CC2530-2.5.1a\Projects\zstack\S #
#                          amples\GenericApp\CC2530DB\..\..\..\..\..\Componen #
#                          ts\services\sdata\" -I "C:\Texas                   #
#                          Instruments\ZStack-CC2530-2.5.1a\Projects\zstack\S #
#                          amples\GenericApp\CC2530DB\..\..\..\..\..\Componen #
#                          ts\stack\af\" -I "C:\Texas                         #
#                          Instruments\ZStack-CC2530-2.5.1a\Projects\zstack\S #
#                          amples\GenericApp\CC2530DB\..\..\..\..\..\Componen #
#                          ts\stack\nwk\" -I "C:\Texas                        #
#                          Instruments\ZStack-CC2530-2.5.1a\Projects\zstack\S #
#                          amples\GenericApp\CC2530DB\..\..\..\..\..\Componen #
#                          ts\stack\sapi\" -I "C:\Texas                       #
#                          Instruments\ZStack-CC2530-2.5.1a\Projects\zstack\S #
#                          amples\GenericApp\CC2530DB\..\..\..\..\..\Componen #
#                          ts\stack\sec\" -I "C:\Texas                        #
#                          Instruments\ZStack-CC2530-2.5.1a\Projects\zstack\S #
#                          amples\GenericApp\CC2530DB\..\..\..\..\..\Componen #
#                          ts\stack\sys\" -I "C:\Texas                        #
#                          Instruments\ZStack-CC2530-2.5.1a\Projects\zstack\S #
#                          amples\GenericApp\CC2530DB\..\..\..\..\..\Componen #
#                          ts\stack\zdo\" -I "C:\Texas                        #
#                          Instruments\ZStack-CC2530-2.5.1a\Projects\zstack\S #
#                          amples\GenericApp\CC2530DB\..\..\..\..\..\Componen #
#                          ts\zmac\" -I "C:\Texas Instruments\ZStack-CC2530-2 #
#                          .5.1a\Projects\zstack\Samples\GenericApp\CC2530DB\ #
#                          ..\..\..\..\..\Components\zmac\f8w\" -Ohz          #
#                          --require_prototypes                               #
#    List file          =  C:\Texas Instruments\ZStack-CC2530-2.5.1a\Projects #
#                          \zstack\Samples\GenericApp\CC2530DB\EndDeviceEB\Li #
#                          st\Enddevice.lst                                   #
#    Object file        =  C:\Texas Instruments\ZStack-CC2530-2.5.1a\Projects #
#                          \zstack\Samples\GenericApp\CC2530DB\EndDeviceEB\Ob #
#                          j\Enddevice.r51                                    #
#                                                                             #
#                                                                             #
###############################################################################

C:\Texas Instruments\ZStack-CC2530-2.5.1a\Projects\zstack\Samples\GenericApp\Source\Enddevice.c
      1          
      2          
      3          #include "OSAL.h"
      4          #include "AF.h"
      5          #include "ZDApp.h"
      6          #include "ZDObject.h"
      7          #include "ZDProfile.h"
      8          #include <string.h>
      9          #include "Coordinator.h"
     10          #include "DebugTrace.h"
     11          
     12          #if !defined( WIN32 )
     13            #include "OnBoard.h"
     14          #endif
     15          
     16          /* HAL */
     17          #include "hal_lcd.h"
     18          #include "hal_led.h"
     19          #include "hal_key.h"
     20          #include "hal_uart.h"
     21          
     22          //#define SEND_DATA_EVENT 0x01
     23          /* RTOS */
     24          //#if defined( IAR_ARMCM3_LM )
     25          //#include "RTOS_App.h"
     26          //#endif  
     27          
     28          

   \                                 In  segment XDATA_ROM_C, align 1
     29          const cId_t GenericApp_ClusterList[GENERICAPP_MAX_CLUSTERS] =
   \                     GenericApp_ClusterList:
   \   000000   0100         DW 1
     30          {
     31            GENERICAPP_CLUSTERID
     32          };
     33          

   \                                 In  segment XDATA_ROM_C, align 1
     34          const SimpleDescriptionFormat_t GenericApp_SimpleDesc =
   \                     GenericApp_SimpleDesc:
   \   000000   0A           DB 10
   \   000001   040F         DW 3844
   \   000003   0100         DW 1
   \   000005   00           DB 0
   \   000006   00           DB 0
   \   000007   0000         DW 0H
   \   000009   01           DB 1
   \   00000A   ....         DW GenericApp_ClusterList
     35          {
     36            GENERICAPP_ENDPOINT,              //  int Endpoint;
     37            GENERICAPP_PROFID,                //  uint16 AppProfId[2];
     38            GENERICAPP_DEVICEID,              //  uint16 AppDeviceId[2];
     39            GENERICAPP_DEVICE_VERSION,        //  int   AppDevVer:4;
     40            GENERICAPP_FLAGS,                 //  int   AppFlags:4;
     41            0,          //  byte  AppNumInClusters;
     42            (cId_t *)NULL,  //  byte *pAppInClusterList;
     43            GENERICAPP_MAX_CLUSTERS,         //  byte  AppNumInClusters;
     44            (cId_t *)GenericApp_ClusterList   //  byte *pAppInClusterList;
     45          };
     46          
     47          

   \                                 In  segment XDATA_Z, align 1, keep-with-next
     48          endPointDesc_t GenericApp_epDesc;
   \                     GenericApp_epDesc:
   \   000000                DS 6
   \   000006                REQUIRE __INIT_XDATA_Z

   \                                 In  segment XDATA_Z, align 1, keep-with-next
     49          byte GenericApp_TaskID;  
   \                     GenericApp_TaskID:
   \   000000                DS 1
   \   000001                REQUIRE __INIT_XDATA_Z

   \                                 In  segment XDATA_Z, align 1, keep-with-next
     50          byte GenericApp_TransID; 
   \                     GenericApp_TransID:
   \   000000                DS 1
   \   000001                REQUIRE __INIT_XDATA_Z

   \                                 In  segment XDATA_Z, align 1, keep-with-next
     51          devStates_t GenericApp_NwkState;
   \                     GenericApp_NwkState:
   \   000000                DS 1
   \   000001                REQUIRE __INIT_XDATA_Z
     52          //void GenericApp_MessageMSGCB(afIncomingMSGPacket_t *pckt);
     53          void GenericApp_SendTheMessage(void);

   \                                 In  segment XDATA_Z, align 1, keep-with-next
     54          unsigned char uartbuf[20];
   \                     uartbuf:
   \   000000                DS 20
   \   000014                REQUIRE __INIT_XDATA_Z
     55          //static void rxCB(uint8 port,uint8 event);
     56          
     57          
     58          
     59          

   \                                 In  segment BANKED_CODE, align 1, keep-with-next
     60          void GenericApp_Init( uint8 task_id )
   \                     GenericApp_Init:
     61          {
   \   000000   74F7         MOV     A,#-0x9
   \   000002   12....       LCALL   ?BANKED_ENTER_XDATA
   \   000005                ; Saved register size: 9
   \   000005                ; Auto size: 29
   \   000005   74E3         MOV     A,#-0x1d
   \   000007   12....       LCALL   ?ALLOC_XSTACK8
   \   00000A   E9           MOV     A,R1
     62            
     63            halUARTCfg_t uartConfig;
     64            GenericApp_TaskID = task_id;
   \   00000B   90....       MOV     DPTR,#GenericApp_TaskID
   \   00000E   F0           MOVX    @DPTR,A
     65            GenericApp_TransID = 0;
   \   00000F   90....       MOV     DPTR,#GenericApp_TransID
   \   000012   E4           CLR     A
   \   000013   F0           MOVX    @DPTR,A
     66          
     67            GenericApp_epDesc.endPoint = GENERICAPP_ENDPOINT;
   \   000014   90....       MOV     DPTR,#GenericApp_epDesc
   \   000017   740A         MOV     A,#0xa
   \   000019   F0           MOVX    @DPTR,A
     68            GenericApp_epDesc.task_id = &GenericApp_TaskID;
   \   00001A   A3           INC     DPTR
   \   00001B   74..         MOV     A,#GenericApp_TaskID & 0xff
   \   00001D   F0           MOVX    @DPTR,A
   \   00001E   A3           INC     DPTR
   \   00001F   74..         MOV     A,#(GenericApp_TaskID >> 8) & 0xff
   \   000021   F0           MOVX    @DPTR,A
     69            GenericApp_epDesc.simpleDesc
     70                      = (SimpleDescriptionFormat_t *)&GenericApp_SimpleDesc;
   \   000022   A3           INC     DPTR
   \   000023   74..         MOV     A,#GenericApp_SimpleDesc & 0xff
   \   000025   F0           MOVX    @DPTR,A
   \   000026   A3           INC     DPTR
   \   000027   74..         MOV     A,#(GenericApp_SimpleDesc >> 8) & 0xff
   \   000029   F0           MOVX    @DPTR,A
     71            GenericApp_epDesc.latencyReq = noLatencyReqs;
   \   00002A   A3           INC     DPTR
   \   00002B   E4           CLR     A
   \   00002C   F0           MOVX    @DPTR,A
     72            afRegister( &GenericApp_epDesc );
   \   00002D                ; Setup parameters for call to function afRegister
   \   00002D   7A..         MOV     R2,#GenericApp_epDesc & 0xff
   \   00002F   7B..         MOV     R3,#(GenericApp_epDesc >> 8) & 0xff
   \   000031   12....       LCALL   ??afRegister?relay
     73          
     74             uartConfig.configured=TRUE;
   \   000034   85..82       MOV     DPL,?XSP + 0
   \   000037   85..83       MOV     DPH,?XSP + 1
   \   00003A   7401         MOV     A,#0x1
   \   00003C   F0           MOVX    @DPTR,A
     75            uartConfig.baudRate=HAL_UART_BR_9600;
   \   00003D   12....       LCALL   ?XSTACK_DISP0_8
   \   000040   E4           CLR     A
   \   000041   F0           MOVX    @DPTR,A
     76            uartConfig.flowControl=FALSE;
   \   000042   7402         MOV     A,#0x2
   \   000044   12....       LCALL   ?XSTACK_DISP0_8
   \   000047   E4           CLR     A
   \   000048   F0           MOVX    @DPTR,A
     77            uartConfig.callBackFunc=NULL;
   \   000049   741B         MOV     A,#0x1b
   \   00004B   12....       LCALL   ?XSTACK_DISP0_8
   \   00004E   E4           CLR     A
   \   00004F   F0           MOVX    @DPTR,A
   \   000050   A3           INC     DPTR
   \   000051   F0           MOVX    @DPTR,A
     78            HalUARTOpen(0,&uartConfig);
   \   000052                ; Setup parameters for call to function HalUARTOpen
   \   000052   85..82       MOV     DPL,?XSP + 0
   \   000055   85..83       MOV     DPH,?XSP + 1
   \   000058   AA82         MOV     R2,DPL
   \   00005A   AB83         MOV     R3,DPH
   \   00005C   F9           MOV     R1,A
   \   00005D   12....       LCALL   ??HalUARTOpen?relay
     79            
     80          }
   \   000060   741D         MOV     A,#0x1d
   \   000062   12....       LCALL   ?DEALLOC_XSTACK8
   \   000065   7F01         MOV     R7,#0x1
   \   000067   02....       LJMP    ?BANKED_LEAVE_XDATA
     81          
     82          /*static void rxCB(uint8 port,uint8 event)
     83          { //unsigned char buffer[16];
     84            HalUARTRead(0,uartbuf,16);
     85           
     86            GenericApp_SendTheMessage();
     87            //HalUARTWrite(0,buffer,16);
     88            HalLedBlink(HAL_LED_2,0,50,500);
     89          }
     90          */

   \                                 In  segment BANKED_CODE, align 1, keep-with-next
     91          UINT16 GenericApp_ProcessEvent( uint8 task_id, uint16 events )
   \                     GenericApp_ProcessEvent:
     92          {
   \   000000   74F4         MOV     A,#-0xc
   \   000002   12....       LCALL   ?BANKED_ENTER_XDATA
   \   000005                ; Saved register size: 12
   \   000005                ; Auto size: 0
   \   000005   8A..         MOV     ?V0 + 0,R2
   \   000007   8B..         MOV     ?V0 + 1,R3
     93             
     94             afIncomingMSGPacket_t *MSGpkt;
     95            
     96           // ZStatus_t sentStatus;
     97            //byte sentTransID;       // This should match the value sent
     98            //(void)task_id;  // Intentionally unreferenced parameter
     99          
    100            if ( events & SYS_EVENT_MSG )
   \   000009   EB           MOV     A,R3
   \   00000A   5480         ANL     A,#0x80
   \   00000C   6060         JZ      ??GenericApp_ProcessEvent_0
    101            {
    102              
    103              MSGpkt = (afIncomingMSGPacket_t *)osal_msg_receive( GenericApp_TaskID );
   \   00000E                ; Setup parameters for call to function osal_msg_receive
   \   00000E   8041         SJMP    ??GenericApp_ProcessEvent_1
    104              while ( MSGpkt )
    105              {
    106                switch ( MSGpkt->hdr.event )
   \                     ??GenericApp_ProcessEvent_2:
   \   000010   8E82         MOV     DPL,R6
   \   000012   8F83         MOV     DPH,R7
   \   000014   E0           MOVX    A,@DPTR
   \   000015   64D1         XRL     A,#0xd1
   \   000017   7031         JNZ     ??GenericApp_ProcessEvent_3
    107                {
    108          
    109                  case ZDO_STATE_CHANGE:
    110                    GenericApp_NwkState = (devStates_t)(MSGpkt->hdr.status);
   \   000019   A3           INC     DPTR
   \   00001A   E0           MOVX    A,@DPTR
   \   00001B   90....       MOV     DPTR,#GenericApp_NwkState
   \   00001E   F0           MOVX    @DPTR,A
    111                    if ( (GenericApp_NwkState == DEV_ZB_COORD)
    112                        || (GenericApp_NwkState == DEV_ROUTER)
    113                        || (GenericApp_NwkState == DEV_END_DEVICE) )
   \   00001F   6409         XRL     A,#0x9
   \   000021   600A         JZ      ??GenericApp_ProcessEvent_4
   \   000023   E0           MOVX    A,@DPTR
   \   000024   6407         XRL     A,#0x7
   \   000026   6005         JZ      ??GenericApp_ProcessEvent_4
   \   000028   E0           MOVX    A,@DPTR
   \   000029   6406         XRL     A,#0x6
   \   00002B   701D         JNZ     ??GenericApp_ProcessEvent_3
    114                    {HalLedBlink(HAL_LED_2,0,50,500);
   \                     ??GenericApp_ProcessEvent_4:
   \   00002D                ; Setup parameters for call to function HalLedBlink
   \   00002D   7CF4         MOV     R4,#-0xc
   \   00002F   7D01         MOV     R5,#0x1
   \   000031   7B32         MOV     R3,#0x32
   \   000033   7A00         MOV     R2,#0x0
   \   000035   7902         MOV     R1,#0x2
   \   000037   12....       LCALL   ??HalLedBlink?relay
    115                       GenericApp_SendTheMessage();
   \   00003A                ; Setup parameters for call to function GenericApp_SendTheMessage
   \   00003A   12....       LCALL   ??GenericApp_SendTheMessage?relay
    116                        HalLedBlink(HAL_LED_2,0,50,500);
   \   00003D                ; Setup parameters for call to function HalLedBlink
   \   00003D   7CF4         MOV     R4,#-0xc
   \   00003F   7D01         MOV     R5,#0x1
   \   000041   7B32         MOV     R3,#0x32
   \   000043   7A00         MOV     R2,#0x0
   \   000045   7902         MOV     R1,#0x2
   \   000047   12....       LCALL   ??HalLedBlink?relay
    117                    }
    118                    break;
    119          
    120                  default:
    121                    break;
    122                }
    123          
    124                // Release the memory
    125                osal_msg_deallocate( (uint8 *)MSGpkt );
   \                     ??GenericApp_ProcessEvent_3:
   \   00004A                ; Setup parameters for call to function osal_msg_deallocate
   \   00004A   EE           MOV     A,R6
   \   00004B   FA           MOV     R2,A
   \   00004C   EF           MOV     A,R7
   \   00004D   FB           MOV     R3,A
   \   00004E   12....       LCALL   ??osal_msg_deallocate?relay
    126          
    127                // Next
    128                MSGpkt = (afIncomingMSGPacket_t *)osal_msg_receive( GenericApp_TaskID );
   \   000051                ; Setup parameters for call to function osal_msg_receive
   \                     ??GenericApp_ProcessEvent_1:
   \   000051   90....       MOV     DPTR,#GenericApp_TaskID
   \   000054   E0           MOVX    A,@DPTR
   \   000055   F9           MOV     R1,A
   \   000056   12....       LCALL   ??osal_msg_receive?relay
   \   000059   8A..         MOV     ?V0 + 2,R2
   \   00005B   8B..         MOV     ?V0 + 3,R3
   \   00005D   AE..         MOV     R6,?V0 + 2
   \   00005F   AF..         MOV     R7,?V0 + 3
    129              }
   \   000061   EE           MOV     A,R6
   \   000062   4F           ORL     A,R7
   \   000063   70AB         JNZ     ??GenericApp_ProcessEvent_2
    130          
    131              // return unprocessed events
    132              return (events ^ SYS_EVENT_MSG);
   \   000065   AA..         MOV     R2,?V0 + 0
   \   000067   E5..         MOV     A,?V0 + 1
   \   000069   6480         XRL     A,#0x80
   \   00006B   FB           MOV     R3,A
   \   00006C   8004         SJMP    ??GenericApp_ProcessEvent_5
    133            }
    134          
    135            return 0;
   \                     ??GenericApp_ProcessEvent_0:
   \   00006E   7A00         MOV     R2,#0x0
   \   000070   7B00         MOV     R3,#0x0
   \                     ??GenericApp_ProcessEvent_5:
   \   000072   7F04         MOV     R7,#0x4
   \   000074   02....       LJMP    ?BANKED_LEAVE_XDATA
    136          }
    137          
    138          
    139          

   \                                 In  segment BANKED_CODE, align 1, keep-with-next
    140          static void GenericApp_SendTheMessage( void )
   \                     GenericApp_SendTheMessage:
    141          {
   \   000000   74F6         MOV     A,#-0xa
   \   000002   12....       LCALL   ?BANKED_ENTER_XDATA
   \   000005                ; Saved register size: 10
   \   000005                ; Auto size: 32
   \   000005   74E0         MOV     A,#-0x20
   \   000007   12....       LCALL   ?ALLOC_XSTACK8
    142            unsigned  char theMessageData[20] = "www.wlwmaker.com";
   \   00000A   740C         MOV     A,#0xc
   \   00000C   12....       LCALL   ?XSTACK_DISP0_8
   \   00000F   AC82         MOV     R4,DPL
   \   000011   AD83         MOV     R5,DPH
   \   000013   7583..       MOV     DPH,#(`?<Constant "www.wlwmaker.com">` >> 8) & 0xff
   \   000016   7582..       MOV     DPL,#`?<Constant "www.wlwmaker.com">` & 0xff
   \   000019   7414         MOV     A,#0x14
   \   00001B   12....       LCALL   ?MOVE_LONG8_XDATA_XDATA
    143            afAddrType_t my_DstAddr;
    144            my_DstAddr.addrMode=(afAddrMode_t)Addr16Bit;
   \   00001E   7408         MOV     A,#0x8
   \   000020   12....       LCALL   ?XSTACK_DISP0_8
   \   000023   7402         MOV     A,#0x2
   \   000025   F0           MOVX    @DPTR,A
    145             my_DstAddr.endPoint=GENERICAPP_ENDPOINT;
   \   000026   7409         MOV     A,#0x9
   \   000028   12....       LCALL   ?XSTACK_DISP0_8
   \   00002B   740A         MOV     A,#0xa
   \   00002D   F0           MOVX    @DPTR,A
    146             my_DstAddr.addr.shortAddr=0x0000;
   \   00002E   85..82       MOV     DPL,?XSP + 0
   \   000031   85..83       MOV     DPH,?XSP + 1
   \   000034   E4           CLR     A
   \   000035   F0           MOVX    @DPTR,A
   \   000036   A3           INC     DPTR
   \   000037   F0           MOVX    @DPTR,A
    147            
    148             AF_DataRequest( &my_DstAddr, &GenericApp_epDesc,
    149                                 GENERICAPP_CLUSTERID,
    150                                 osal_strlen( "www.wlwmaker.com" ) + 1,
    151                                 theMessageData,
    152                                 &GenericApp_TransID,
    153                                 AF_DISCV_ROUTE, AF_DEFAULT_RADIUS ) ;
   \   000038                ; Setup parameters for call to function AF_DataRequest
   \   000038   75..1E       MOV     ?V0 + 0,#0x1e
   \   00003B   78..         MOV     R0,#?V0 + 0
   \   00003D   12....       LCALL   ?PUSH_XSTACK_I_ONE
   \   000040   75....       MOV     ?V0 + 0,#GenericApp_TransID & 0xff
   \   000043   75....       MOV     ?V0 + 1,#(GenericApp_TransID >> 8) & 0xff
   \   000046   78..         MOV     R0,#?V0 + 0
   \   000048   12....       LCALL   ?PUSH_XSTACK_I_TWO
   \   00004B   740F         MOV     A,#0xf
   \   00004D   12....       LCALL   ?XSTACK_DISP0_8
   \   000050   8582..       MOV     ?V0 + 0,DPL
   \   000053   8583..       MOV     ?V0 + 1,DPH
   \   000056   78..         MOV     R0,#?V0 + 0
   \   000058   12....       LCALL   ?PUSH_XSTACK_I_TWO
   \   00005B                ; Setup parameters for call to function osal_strlen
   \   00005B   7A..         MOV     R2,#`?<Constant "www.wlwmaker.com">_1` & 0xff
   \   00005D   7B..         MOV     R3,#(`?<Constant "www.wlwmaker.com">_1` >> 8) & 0xff
   \   00005F   12....       LCALL   ??osal_strlen?relay
   \   000062   EA           MOV     A,R2
   \   000063   2401         ADD     A,#0x1
   \   000065   F5..         MOV     ?V0 + 0,A
   \   000067   EB           MOV     A,R3
   \   000068   3400         ADDC    A,#0x0
   \   00006A   F5..         MOV     ?V0 + 1,A
   \   00006C   78..         MOV     R0,#?V0 + 0
   \   00006E   12....       LCALL   ?PUSH_XSTACK_I_TWO
   \   000071   75..01       MOV     ?V0 + 0,#0x1
   \   000074   75..00       MOV     ?V0 + 1,#0x0
   \   000077   78..         MOV     R0,#?V0 + 0
   \   000079   12....       LCALL   ?PUSH_XSTACK_I_TWO
   \   00007C   7920         MOV     R1,#0x20
   \   00007E   7C..         MOV     R4,#GenericApp_epDesc & 0xff
   \   000080   7D..         MOV     R5,#(GenericApp_epDesc >> 8) & 0xff
   \   000082   7409         MOV     A,#0x9
   \   000084   12....       LCALL   ?XSTACK_DISP0_8
   \   000087   AA82         MOV     R2,DPL
   \   000089   AB83         MOV     R3,DPH
   \   00008B   12....       LCALL   ??AF_DataRequest?relay
   \   00008E   7409         MOV     A,#0x9
   \   000090   12....       LCALL   ?DEALLOC_XSTACK8
    154            
    155          }
   \   000093   7420         MOV     A,#0x20
   \   000095   12....       LCALL   ?DEALLOC_XSTACK8
   \   000098   7F02         MOV     R7,#0x2
   \   00009A   02....       LJMP    ?BANKED_LEAVE_XDATA

   \                                 In  segment BANK_RELAYS, align 1
   \                     ??GenericApp_Init?relay:
   \   000000   12....       LCALL   ?BDISPATCH
   \   000003   ......       DC24    GenericApp_Init

   \                                 In  segment BANK_RELAYS, align 1
   \                     ??GenericApp_ProcessEvent?relay:
   \   000000   12....       LCALL   ?BDISPATCH
   \   000003   ......       DC24    GenericApp_ProcessEvent

   \                                 In  segment BANK_RELAYS, align 1
   \                     ??GenericApp_SendTheMessage?relay:
   \   000000   12....       LCALL   ?BDISPATCH
   \   000003   ......       DC24    GenericApp_SendTheMessage

   \                                 In  segment XDATA_ROM_C, align 1
   \                     `?<Constant "www.wlwmaker.com">`:
   \   000000   7777772E     DB "www.wlwmaker.com"
   \            776C776D
   \            616B6572
   \            2E636F6D
   \            00      
   \   000011   000000       DB 0, 0, 0

   \                                 In  segment XDATA_ROM_C, align 1
   \                     `?<Constant "www.wlwmaker.com">_1`:
   \   000000   7777772E     DB "www.wlwmaker.com"
   \            776C776D
   \            616B6572
   \            2E636F6D
   \            00      

   Maximum stack usage in bytes:

     Function                       ISTACK PSTACK XSTACK
     --------                       ------ ------ ------
     GenericApp_Init                    0      0     38
       -> afRegister                    0      0     76
       -> HalUARTOpen                   0      0     76
     GenericApp_ProcessEvent            0      0     12
       -> osal_msg_receive              0      0     24
       -> HalLedBlink                   0      0     24
       -> GenericApp_SendTheMessage     0      0     24
       -> HalLedBlink                   0      0     24
       -> osal_msg_deallocate           0      0     24
       -> osal_msg_receive              0      0     24
     GenericApp_SendTheMessage          2      0     63
       -> osal_strlen                   0      0     94
       -> AF_DataRequest                0      0    102


   Segment part sizes:

     Function/Label                    Bytes
     --------------                    -----
     GenericApp_ClusterList               2
     GenericApp_SimpleDesc               12
     GenericApp_epDesc                    6
     GenericApp_TaskID                    1
     GenericApp_TransID                   1
     GenericApp_NwkState                  1
     uartbuf                             20
     GenericApp_Init                    106
     GenericApp_ProcessEvent            119
     GenericApp_SendTheMessage          157
     ??GenericApp_Init?relay              6
     ??GenericApp_ProcessEvent?relay      6
     ??GenericApp_SendTheMessage?relay    6
     ?<Constant "www.wlwmaker.com">      20
     ?<Constant "www.wlwmaker.com">_1    17

 
 382 bytes in segment BANKED_CODE
  18 bytes in segment BANK_RELAYS
  51 bytes in segment XDATA_ROM_C
  29 bytes in segment XDATA_Z
 
 400 bytes of CODE  memory
  51 bytes of CONST memory
  29 bytes of XDATA memory

Errors: none
Warnings: none
