###############################################################################
#                                                                             #
# IAR C/C++ Compiler V8.10.1.10194/W32 for 8051         06/Jan/2019  13:43:27 #
# Copyright 2004-2011 IAR Systems AB.                                         #
#                                                                             #
#    Core               =  plain                                              #
#    Code model         =  banked                                             #
#    Data model         =  large                                              #
#    Calling convention =  xdata reentrant                                    #
#    Constant location  =  data_rom                                           #
#    Dptr setup         =  1,16                                               #
#    Source file        =  C:\Texas Instruments\ZStack-CC2530-2.5.1a\Projects #
#                          \zstack\Samples\GenericApp\Source\DH.c             #
#    Command line       =  -f "C:\Texas Instruments\ZStack-CC2530-2.5.1a\Proj #
#                          ects\zstack\Samples\GenericApp\CC2530DB\..\..\..\T #
#                          ools\CC2530DB\f8wCoord.cfg" (-DCPU32MHZ            #
#                          -DROOT=__near_func -DMAC_CFG_APP_PENDING_QUEUE=TRU #
#                          E -DMAC_CFG_TX_DATA_MAX=5 -DMAC_CFG_TX_MAX=8       #
#                          -DMAC_CFG_RX_MAX=5 -DZDO_COORDINATOR -DRTR_NWK)    #
#                          -f "C:\Texas Instruments\ZStack-CC2530-2.5.1a\Proj #
#                          ects\zstack\Samples\GenericApp\CC2530DB\..\..\..\T #
#                          ools\CC2530DB\f8wConfig.cfg" (-DZIGBEEPRO          #
#                          -DSECURE=0 -DZG_SECURE_DYNAMIC=0 -DREFLECTOR       #
#                          -DDEFAULT_CHANLIST=0x00000800                      #
#                          -DZDAPP_CONFIG_PAN_ID=0xFFFF                       #
#                          -DNWK_START_DELAY=100 -DEXTENDED_JOINING_RANDOM_MA #
#                          SK=0x007F -DBEACON_REQUEST_DELAY=100               #
#                          -DBEACON_REQ_DELAY_MASK=0x00FF                     #
#                          -DLINK_STATUS_JITTER_MASK=0x007F                   #
#                          -DROUTE_EXPIRY_TIME=30 -DAPSC_ACK_WAIT_DURATION_PO #
#                          LLED=3000 -DNWK_INDIRECT_MSG_TIMEOUT=7             #
#                          -DMAX_RREQ_ENTRIES=8 -DAPSC_MAX_FRAME_RETRIES=3    #
#                          -DNWK_MAX_DATA_RETRIES=2                           #
#                          -DMAX_POLL_FAILURE_RETRIES=2 -DMAX_BCAST=9         #
#                          -DAPS_MAX_GROUPS=16 -DMAX_RTG_ENTRIES=40           #
#                          -DNWK_MAX_BINDING_ENTRIES=4                        #
#                          -DMAX_BINDING_CLUSTER_IDS=4 "-DDEFAULT_KEY={0x01,  #
#                          0x03, 0x05, 0x07, 0x09, 0x0B, 0x0D, 0x0F, 0x00,    #
#                          0x02, 0x04, 0x06, 0x08, 0x0A, 0x0C, 0x0D}"         #
#                          -DMAC_MAX_FRAME_SIZE=116                           #
#                          -DZDNWKMGR_MIN_TRANSMISSIONS=20 "-DCONST=const     #
#                          __code" -DGENERIC=__generic                        #
#                          -DRFD_RCVC_ALWAYS_ON=FALSE -DPOLL_RATE=1000        #
#                          -DQUEUED_POLL_RATE=100 -DRESPONSE_POLL_RATE=100)   #
#                          -DREJOIN_POLL_RATE=440 "C:\Texas                   #
#                          Instruments\ZStack-CC2530-2.5.1a\Projects\zstack\S #
#                          amples\GenericApp\Source\DH.c" -D ZTOOL_P1 -D      #
#                          MT_TASK -D MT_SYS_FUNC -D MT_ZDO_FUNC -D           #
#                          LCD_SUPPORTED=DEBUG -D HAL_UART=TRUE -lC           #
#                          "C:\Texas Instruments\ZStack-CC2530-2.5.1a\Project #
#                          s\zstack\Samples\GenericApp\CC2530DB\CoordinatorEB #
#                          \List\" -lA "C:\Texas Instruments\ZStack-CC2530-2. #
#                          5.1a\Projects\zstack\Samples\GenericApp\CC2530DB\C #
#                          oordinatorEB\List\" --diag_suppress Pe001,Pa010    #
#                          -o "C:\Texas Instruments\ZStack-CC2530-2.5.1a\Proj #
#                          ects\zstack\Samples\GenericApp\CC2530DB\Coordinato #
#                          rEB\Obj\" -e --no_code_motion --debug              #
#                          --core=plain --dptr=16,1 --data_model=large        #
#                          --code_model=banked --calling_convention=xdata_ree #
#                          ntrant --place_constants=data_rom                  #
#                          --nr_virtual_regs 16 -I "C:\Texas                  #
#                          Instruments\ZStack-CC2530-2.5.1a\Projects\zstack\S #
#                          amples\GenericApp\CC2530DB\" -I "C:\Texas          #
#                          Instruments\ZStack-CC2530-2.5.1a\Projects\zstack\S #
#                          amples\GenericApp\CC2530DB\..\Source\" -I          #
#                          "C:\Texas Instruments\ZStack-CC2530-2.5.1a\Project #
#                          s\zstack\Samples\GenericApp\CC2530DB\..\..\..\ZMai #
#                          n\TI2530DB\" -I "C:\Texas                          #
#                          Instruments\ZStack-CC2530-2.5.1a\Projects\zstack\S #
#                          amples\GenericApp\CC2530DB\..\..\..\..\..\Componen #
#                          ts\hal\include\" -I "C:\Texas                      #
#                          Instruments\ZStack-CC2530-2.5.1a\Projects\zstack\S #
#                          amples\GenericApp\CC2530DB\..\..\..\..\..\Componen #
#                          ts\hal\target\CC2530EB\" -I "C:\Texas              #
#                          Instruments\ZStack-CC2530-2.5.1a\Projects\zstack\S #
#                          amples\GenericApp\CC2530DB\..\..\..\..\..\Componen #
#                          ts\mac\include\" -I "C:\Texas                      #
#                          Instruments\ZStack-CC2530-2.5.1a\Projects\zstack\S #
#                          amples\GenericApp\CC2530DB\..\..\..\..\..\Componen #
#                          ts\mac\high_level\" -I "C:\Texas                   #
#                          Instruments\ZStack-CC2530-2.5.1a\Projects\zstack\S #
#                          amples\GenericApp\CC2530DB\..\..\..\..\..\Componen #
#                          ts\mac\low_level\srf04\" -I "C:\Texas              #
#                          Instruments\ZStack-CC2530-2.5.1a\Projects\zstack\S #
#                          amples\GenericApp\CC2530DB\..\..\..\..\..\Componen #
#                          ts\mac\low_level\srf04\single_chip\" -I "C:\Texas  #
#                          Instruments\ZStack-CC2530-2.5.1a\Projects\zstack\S #
#                          amples\GenericApp\CC2530DB\..\..\..\..\..\Componen #
#                          ts\mt\" -I "C:\Texas Instruments\ZStack-CC2530-2.5 #
#                          .1a\Projects\zstack\Samples\GenericApp\CC2530DB\.. #
#                          \..\..\..\..\Components\osal\include\" -I          #
#                          "C:\Texas Instruments\ZStack-CC2530-2.5.1a\Project #
#                          s\zstack\Samples\GenericApp\CC2530DB\..\..\..\..\. #
#                          .\Components\services\saddr\" -I "C:\Texas         #
#                          Instruments\ZStack-CC2530-2.5.1a\Projects\zstack\S #
#                          amples\GenericApp\CC2530DB\..\..\..\..\..\Componen #
#                          ts\services\sdata\" -I "C:\Texas                   #
#                          Instruments\ZStack-CC2530-2.5.1a\Projects\zstack\S #
#                          amples\GenericApp\CC2530DB\..\..\..\..\..\Componen #
#                          ts\stack\af\" -I "C:\Texas                         #
#                          Instruments\ZStack-CC2530-2.5.1a\Projects\zstack\S #
#                          amples\GenericApp\CC2530DB\..\..\..\..\..\Componen #
#                          ts\stack\nwk\" -I "C:\Texas                        #
#                          Instruments\ZStack-CC2530-2.5.1a\Projects\zstack\S #
#                          amples\GenericApp\CC2530DB\..\..\..\..\..\Componen #
#                          ts\stack\sapi\" -I "C:\Texas                       #
#                          Instruments\ZStack-CC2530-2.5.1a\Projects\zstack\S #
#                          amples\GenericApp\CC2530DB\..\..\..\..\..\Componen #
#                          ts\stack\sec\" -I "C:\Texas                        #
#                          Instruments\ZStack-CC2530-2.5.1a\Projects\zstack\S #
#                          amples\GenericApp\CC2530DB\..\..\..\..\..\Componen #
#                          ts\stack\sys\" -I "C:\Texas                        #
#                          Instruments\ZStack-CC2530-2.5.1a\Projects\zstack\S #
#                          amples\GenericApp\CC2530DB\..\..\..\..\..\Componen #
#                          ts\stack\zdo\" -I "C:\Texas                        #
#                          Instruments\ZStack-CC2530-2.5.1a\Projects\zstack\S #
#                          amples\GenericApp\CC2530DB\..\..\..\..\..\Componen #
#                          ts\zmac\" -I "C:\Texas Instruments\ZStack-CC2530-2 #
#                          .5.1a\Projects\zstack\Samples\GenericApp\CC2530DB\ #
#                          ..\..\..\..\..\Components\zmac\f8w\" -Ohz          #
#                          --require_prototypes                               #
#    List file          =  C:\Texas Instruments\ZStack-CC2530-2.5.1a\Projects #
#                          \zstack\Samples\GenericApp\CC2530DB\CoordinatorEB\ #
#                          List\DH.lst                                        #
#    Object file        =  C:\Texas Instruments\ZStack-CC2530-2.5.1a\Projects #
#                          \zstack\Samples\GenericApp\CC2530DB\CoordinatorEB\ #
#                          Obj\DH.r51                                         #
#                                                                             #
#                                                                             #
###############################################################################

C:\Texas Instruments\ZStack-CC2530-2.5.1a\Projects\zstack\Samples\GenericApp\Source\DH.c
      1          #include "OSAL.h"
      2          #include "AF.h"
      3          #include "ZDApp.h"
      4          #include "ZDObject.h"
      5          #include "ZDProfile.h"
      6          #include <string.h>
      7          #include <ioCC2530.h>
      8          //#include "GenericApp.h"   
      9          #include "DebugTrace.h"
     10          
     11          #include "DH.h"  
     12          
     13          #if !defined( WIN32 )
     14            #include "OnBoard.h"
     15          #endif
     16          
     17          /* HAL */
     18          #include "hal_lcd.h"
     19          #include "hal_led.h"
     20          #include "hal_key.h"
     21          #include "hal_uart.h"

   \                                 In  segment XDATA_Z, align 1, keep-with-next
     22          unsigned char uartbuf[2];
   \                     uartbuf:
   \   000000                DS 2
   \   000002                REQUIRE __INIT_XDATA_Z
     23          
     24          // This list should be filled with Application specific Cluster IDs.

   \                                 In  segment XDATA_ROM_C, align 1
     25          const cId_t GenericApp_ClusterList[GENERICAPP_MAX_CLUSTERS] =
   \                     GenericApp_ClusterList:
   \   000000   0100         DW 1
     26          {
     27            GENERICAPP_CLUSTERID  
     28          };
     29          

   \                                 In  segment XDATA_ROM_C, align 1
     30          const SimpleDescriptionFormat_t GenericApp_SimpleDesc =//简单设备描述符
   \                     GenericApp_SimpleDesc:
   \   000000   0A           DB 10
   \   000001   040F         DW 3844
   \   000003   0100         DW 1
   \   000005   00           DB 0
   \   000006   01           DB 1
   \   000007   ....         DW GenericApp_ClusterList
   \   000009   00           DB 0
   \   00000A   0000         DW 0H
     31          {
     32            GENERICAPP_ENDPOINT,              //  int Endpoint;
     33            GENERICAPP_PROFID,                //  uint16 AppProfId[2];
     34            GENERICAPP_DEVICEID,              //  uint16 AppDeviceId[2];
     35            GENERICAPP_DEVICE_VERSION,        //  int   AppDevVer:4;
     36            GENERICAPP_FLAGS,                 //  int   AppFlags:4;
     37            GENERICAPP_MAX_CLUSTERS,          //  byte  AppNumInClusters;
     38            (cId_t *)GenericApp_ClusterList,  //  byte *pAppInClusterList;
     39            0,          //  改 byte  AppNumInClusters;
     40            (cId_t *)NULL   //  改 byte *pAppInClusterList;
     41          };
     42          
     43          // This is the Endpoint/Interface description.  It is defined here, but
     44          // filled-in in GenericApp_Init().  Another way to go would be to fill
     45          // in the structure here and make it a "const" (in code space).  The
     46          // way it's defined in this sample app it is define in RAM.

   \                                 In  segment XDATA_Z, align 1, keep-with-next
     47          endPointDesc_t GenericApp_epDesc;//节点描述符
   \                     GenericApp_epDesc:
   \   000000                DS 6
   \   000006                REQUIRE __INIT_XDATA_Z
     48          
     49          /*********************************************************************
     50           * EXTERNAL VARIABLES
     51           */
     52          
     53          /*********************************************************************
     54           * EXTERNAL FUNCTIONS
     55           */
     56          
     57          /*********************************************************************
     58           * LOCAL VARIABLES
     59           */

   \                                 In  segment XDATA_Z, align 1, keep-with-next
     60          byte GenericApp_TaskID;   // Task ID for internal task/event processing任务优先级
   \                     GenericApp_TaskID:
   \   000000                DS 1
   \   000001                REQUIRE __INIT_XDATA_Z
     61                                    // This variable will be received when
     62                                    // GenericApp_Init() is called.
     63          
     64          

   \                                 In  segment XDATA_Z, align 1, keep-with-next
     65          byte GenericApp_TransID;  // This is the unique message ID (counter)数据发送序列号
   \                     GenericApp_TransID:
   \   000000                DS 1
   \   000001                REQUIRE __INIT_XDATA_Z
     66          
     67           void GenericApp_MessageMSGCB( afIncomingMSGPacket_t *pckt ); //消息处理函数
     68          void GenericApp_SendTheMessage( void );//数据发送函数
     69          static void rxCB(uint8 port,uint8 event);
     70          
     71          
     72          //static void rxCB(uint8 port,uint8 event);
     73          

   \                                 In  segment BANKED_CODE, align 1, keep-with-next
     74          void GenericApp_Init( byte task_id )//任务初始化函数
   \                     GenericApp_Init:
     75          {
   \   000000   74F7         MOV     A,#-0x9
   \   000002   12....       LCALL   ?BANKED_ENTER_XDATA
   \   000005                ; Saved register size: 9
   \   000005                ; Auto size: 29
   \   000005   74E3         MOV     A,#-0x1d
   \   000007   12....       LCALL   ?ALLOC_XSTACK8
   \   00000A   E9           MOV     A,R1
     76            halUARTCfg_t uartConfig;
     77            GenericApp_TaskID = task_id;
   \   00000B   90....       MOV     DPTR,#GenericApp_TaskID
   \   00000E   F0           MOVX    @DPTR,A
     78            GenericApp_TransID = 0;//发送序列包置零，每发送一个包，序列自加一
   \   00000F   90....       MOV     DPTR,#GenericApp_TransID
   \   000012   E4           CLR     A
   \   000013   F0           MOVX    @DPTR,A
     79          
     80            GenericApp_epDesc.endPoint = GENERICAPP_ENDPOINT;
   \   000014   90....       MOV     DPTR,#GenericApp_epDesc
   \   000017   740A         MOV     A,#0xa
   \   000019   F0           MOVX    @DPTR,A
     81            GenericApp_epDesc.task_id = &GenericApp_TaskID;
   \   00001A   A3           INC     DPTR
   \   00001B   74..         MOV     A,#GenericApp_TaskID & 0xff
   \   00001D   F0           MOVX    @DPTR,A
   \   00001E   A3           INC     DPTR
   \   00001F   74..         MOV     A,#(GenericApp_TaskID >> 8) & 0xff
   \   000021   F0           MOVX    @DPTR,A
     82            GenericApp_epDesc.simpleDesc
     83                      = (SimpleDescriptionFormat_t *)&GenericApp_SimpleDesc;
   \   000022   A3           INC     DPTR
   \   000023   74..         MOV     A,#GenericApp_SimpleDesc & 0xff
   \   000025   F0           MOVX    @DPTR,A
   \   000026   A3           INC     DPTR
   \   000027   74..         MOV     A,#(GenericApp_SimpleDesc >> 8) & 0xff
   \   000029   F0           MOVX    @DPTR,A
     84            GenericApp_epDesc.latencyReq = noLatencyReqs;
   \   00002A   A3           INC     DPTR
   \   00002B   E4           CLR     A
   \   00002C   F0           MOVX    @DPTR,A
     85          
     86            // Register the endpoint description with the AF
     87            afRegister( &GenericApp_epDesc );//节点注册，注册后才能使用OSAL提供的系统服务
   \   00002D                ; Setup parameters for call to function afRegister
   \   00002D   7A..         MOV     R2,#GenericApp_epDesc & 0xff
   \   00002F   7B..         MOV     R3,#(GenericApp_epDesc >> 8) & 0xff
   \   000031   12....       LCALL   ??afRegister?relay
     88          
     89            uartConfig.configured   =TRUE;
   \   000034   85..82       MOV     DPL,?XSP + 0
   \   000037   85..83       MOV     DPH,?XSP + 1
   \   00003A   7401         MOV     A,#0x1
   \   00003C   F0           MOVX    @DPTR,A
     90            uartConfig.baudRate     =HAL_UART_BR_9600;
   \   00003D   12....       LCALL   ?XSTACK_DISP0_8
   \   000040   E4           CLR     A
   \   000041   F0           MOVX    @DPTR,A
     91            uartConfig.flowControl  =FALSE;
   \   000042   7402         MOV     A,#0x2
   \   000044   12....       LCALL   ?XSTACK_DISP0_8
   \   000047   E4           CLR     A
   \   000048   F0           MOVX    @DPTR,A
     92            uartConfig.callBackFunc =rxCB;
   \   000049   741B         MOV     A,#0x1b
   \   00004B   12....       LCALL   ?XSTACK_DISP0_8
   \   00004E   74..         MOV     A,#??rxCB?relay & 0xff
   \   000050   F0           MOVX    @DPTR,A
   \   000051   A3           INC     DPTR
   \   000052   74..         MOV     A,#(??rxCB?relay >> 8) & 0xff
   \   000054   F0           MOVX    @DPTR,A
     93            HalUARTOpen(0,&uartConfig);
   \   000055                ; Setup parameters for call to function HalUARTOpen
   \   000055   85..82       MOV     DPL,?XSP + 0
   \   000058   85..83       MOV     DPH,?XSP + 1
   \   00005B   AA82         MOV     R2,DPL
   \   00005D   AB83         MOV     R3,DPH
   \   00005F   7900         MOV     R1,#0x0
   \   000061   12....       LCALL   ??HalUARTOpen?relay
     94          }
   \   000064   741D         MOV     A,#0x1d
   \   000066   12....       LCALL   ?DEALLOC_XSTACK8
   \   000069   7F01         MOV     R7,#0x1
   \   00006B   02....       LJMP    ?BANKED_LEAVE_XDATA
     95          

   \                                 In  segment BANKED_CODE, align 1, keep-with-next
     96          static void rxCB(uint8 port,uint8 event)
   \                     rxCB:
     97          {
   \   000000   C082         PUSH    DPL
   \   000002   C083         PUSH    DPH
   \   000004                ; Saved register size: 2
   \   000004                ; Auto size: 0
     98              
     99              HalUARTRead(0,uartbuf,2);
   \   000004                ; Setup parameters for call to function HalUARTRead
   \   000004   7C02         MOV     R4,#0x2
   \   000006   7D00         MOV     R5,#0x0
   \   000008   7A..         MOV     R2,#uartbuf & 0xff
   \   00000A   7B..         MOV     R3,#(uartbuf >> 8) & 0xff
   \   00000C   7900         MOV     R1,#0x0
   \   00000E   12....       LCALL   ??HalUARTRead?relay
    100             
    101              GenericApp_SendTheMessage();
   \   000011                ; Setup parameters for call to function GenericApp_SendTheMessage
   \   000011   12....       LCALL   ??GenericApp_SendTheMessage?relay
    102              //HalLedBlink(HAL_LED_3,0,50,500);
    103          }
   \   000014   D083         POP     DPH
   \   000016   D082         POP     DPL
   \   000018   02....       LJMP    ?BRET
    104          

   \                                 In  segment BANKED_CODE, align 1, keep-with-next
    105          UINT16 GenericApp_ProcessEvent( byte task_id, UINT16 events )
   \                     GenericApp_ProcessEvent:
    106          {
   \   000000   74F4         MOV     A,#-0xc
   \   000002   12....       LCALL   ?BANKED_ENTER_XDATA
   \   000005                ; Saved register size: 12
   \   000005                ; Auto size: 0
   \   000005   8A..         MOV     ?V0 + 0,R2
   \   000007   8B..         MOV     ?V0 + 1,R3
    107            afIncomingMSGPacket_t *MSGpkt;
    108            if ( events & SYS_EVENT_MSG )
   \   000009   EB           MOV     A,R3
   \   00000A   5480         ANL     A,#0x80
   \   00000C   6036         JZ      ??GenericApp_ProcessEvent_0
    109            {
    110              MSGpkt = (afIncomingMSGPacket_t *)osal_msg_receive( GenericApp_TaskID );
   \   00000E                ; Setup parameters for call to function osal_msg_receive
   \   00000E   8017         SJMP    ??GenericApp_ProcessEvent_1
    111              while ( MSGpkt )
    112              {
    113                switch ( MSGpkt->hdr.event )
   \                     ??GenericApp_ProcessEvent_2:
   \   000010   8E82         MOV     DPL,R6
   \   000012   8F83         MOV     DPH,R7
   \   000014   E0           MOVX    A,@DPTR
   \   000015   641A         XRL     A,#0x1a
   \   000017   7007         JNZ     ??GenericApp_ProcessEvent_3
    114                {
    115                  case AF_INCOMING_MSG_CMD://是指的收到从其他节点应用层发给自己的数据包
    116                   
    117                    GenericApp_MessageMSGCB( MSGpkt );
   \   000019                ; Setup parameters for call to function GenericApp_MessageMSGCB
   \   000019   EE           MOV     A,R6
   \   00001A   FA           MOV     R2,A
   \   00001B   EF           MOV     A,R7
   \   00001C   FB           MOV     R3,A
   \   00001D   12....       LCALL   ??GenericApp_MessageMSGCB?relay
    118                   // HalLedBlink(HAL_LED_3,0,50,500);
    119                    break;
    120                  default:
    121                    break;
    122                }
    123          
    124               
    125                osal_msg_deallocate( (uint8 *)MSGpkt );//释放内存
   \                     ??GenericApp_ProcessEvent_3:
   \   000020                ; Setup parameters for call to function osal_msg_deallocate
   \   000020   EE           MOV     A,R6
   \   000021   FA           MOV     R2,A
   \   000022   EF           MOV     A,R7
   \   000023   FB           MOV     R3,A
   \   000024   12....       LCALL   ??osal_msg_deallocate?relay
    126          
    127              
    128                MSGpkt = (afIncomingMSGPacket_t *)osal_msg_receive( GenericApp_TaskID );
   \   000027                ; Setup parameters for call to function osal_msg_receive
   \                     ??GenericApp_ProcessEvent_1:
   \   000027   90....       MOV     DPTR,#GenericApp_TaskID
   \   00002A   E0           MOVX    A,@DPTR
   \   00002B   F9           MOV     R1,A
   \   00002C   12....       LCALL   ??osal_msg_receive?relay
   \   00002F   8A..         MOV     ?V0 + 2,R2
   \   000031   8B..         MOV     ?V0 + 3,R3
   \   000033   AE..         MOV     R6,?V0 + 2
   \   000035   AF..         MOV     R7,?V0 + 3
    129              }
   \   000037   EE           MOV     A,R6
   \   000038   4F           ORL     A,R7
   \   000039   70D5         JNZ     ??GenericApp_ProcessEvent_2
    130          
    131           
    132              return (events ^ SYS_EVENT_MSG);
   \   00003B   AA..         MOV     R2,?V0 + 0
   \   00003D   E5..         MOV     A,?V0 + 1
   \   00003F   6480         XRL     A,#0x80
   \   000041   FB           MOV     R3,A
   \   000042   8004         SJMP    ??GenericApp_ProcessEvent_4
    133            }
    134          
    135            return 0;
   \                     ??GenericApp_ProcessEvent_0:
   \   000044   7A00         MOV     R2,#0x0
   \   000046   7B00         MOV     R3,#0x0
   \                     ??GenericApp_ProcessEvent_4:
   \   000048   7F04         MOV     R7,#0x4
   \   00004A   02....       LJMP    ?BANKED_LEAVE_XDATA
    136          }
    137          
    138          

   \                                 In  segment BANKED_CODE, align 1, keep-with-next
    139          void GenericApp_MessageMSGCB( afIncomingMSGPacket_t *pkt )//消息处理
   \                     GenericApp_MessageMSGCB:
    140          {
   \   000000   74F5         MOV     A,#-0xb
   \   000002   12....       LCALL   ?BANKED_ENTER_XDATA
   \   000005                ; Saved register size: 11
   \   000005                ; Auto size: 10
   \   000005   74F6         MOV     A,#-0xa
   \   000007   12....       LCALL   ?ALLOC_XSTACK8
    141            unsigned char buffer[10];
    142            switch ( pkt->clusterId )
   \   00000A   8A82         MOV     DPL,R2
   \   00000C   8B83         MOV     DPH,R3
   \   00000E   A3           INC     DPTR
   \   00000F   A3           INC     DPTR
   \   000010   A3           INC     DPTR
   \   000011   A3           INC     DPTR
   \   000012   E0           MOVX    A,@DPTR
   \   000013   6401         XRL     A,#0x1
   \   000015   7002         JNZ     ??GenericApp_MessageMSGCB_0
   \   000017   A3           INC     DPTR
   \   000018   E0           MOVX    A,@DPTR
   \                     ??GenericApp_MessageMSGCB_0:
   \   000019   704E         JNZ     ??GenericApp_MessageMSGCB_1
    143            {
    144              case GENERICAPP_CLUSTERID:
    145                // "the" message
    146                 //HalLedBlink(HAL_LED_1,0,90,500);
    147                osal_memcpy(buffer,pkt->cmd.Data,5);//将数据拷贝到缓冲区
   \   00001B                ; Setup parameters for call to function osal_memcpy
   \   00001B   EA           MOV     A,R2
   \   00001C   2422         ADD     A,#0x22
   \   00001E   F582         MOV     DPL,A
   \   000020   EB           MOV     A,R3
   \   000021   3400         ADDC    A,#0x0
   \   000023   F583         MOV     DPH,A
   \   000025   E0           MOVX    A,@DPTR
   \   000026   F5..         MOV     ?V0 + 0,A
   \   000028   A3           INC     DPTR
   \   000029   E0           MOVX    A,@DPTR
   \   00002A   F5..         MOV     ?V0 + 1,A
   \   00002C   75..00       MOV     ?V0 + 2,#0x0
   \   00002F   78..         MOV     R0,#?V0 + 0
   \   000031   12....       LCALL   ?PUSH_XSTACK_I_THREE
   \   000034   7C05         MOV     R4,#0x5
   \   000036   7D00         MOV     R5,#0x0
   \   000038   7403         MOV     A,#0x3
   \   00003A   12....       LCALL   ?XSTACK_DISP0_8
   \   00003D   AA82         MOV     R2,DPL
   \   00003F   AB83         MOV     R3,DPH
   \   000041   12....       LCALL   ??osal_memcpy?relay
   \   000044   7403         MOV     A,#0x3
   \   000046   12....       LCALL   ?DEALLOC_XSTACK8
    148                // HalLedBlink(HAL_LED_1,0,90,500);
    149                 
    150               HalUARTWrite(0,buffer,5);  //往串口写数据，送往PC
   \   000049                ; Setup parameters for call to function HalUARTWrite
   \   000049   7C05         MOV     R4,#0x5
   \   00004B   7D00         MOV     R5,#0x0
   \   00004D   85..82       MOV     DPL,?XSP + 0
   \   000050   85..83       MOV     DPH,?XSP + 1
   \   000053   AA82         MOV     R2,DPL
   \   000055   AB83         MOV     R3,DPH
   \   000057   7900         MOV     R1,#0x0
   \   000059   12....       LCALL   ??HalUARTWrite?relay
    151                HalLedBlink(HAL_LED_3,0,50,500);
   \   00005C                ; Setup parameters for call to function HalLedBlink
   \   00005C   7CF4         MOV     R4,#-0xc
   \   00005E   7D01         MOV     R5,#0x1
   \   000060   7B32         MOV     R3,#0x32
   \   000062   7A00         MOV     R2,#0x0
   \   000064   7904         MOV     R1,#0x4
   \   000066   12....       LCALL   ??HalLedBlink?relay
    152              
    153                break;
    154            }
    155          }
   \                     ??GenericApp_MessageMSGCB_1:
   \   000069   740A         MOV     A,#0xa
   \   00006B   12....       LCALL   ?DEALLOC_XSTACK8
   \   00006E   7F03         MOV     R7,#0x3
   \   000070   02....       LJMP    ?BANKED_LEAVE_XDATA
    156          
    157          
    158          

   \                                 In  segment BANKED_CODE, align 1, keep-with-next
    159          void GenericApp_SendTheMessage( void )
   \                     GenericApp_SendTheMessage:
    160          {
   \   000000   74F6         MOV     A,#-0xa
   \   000002   12....       LCALL   ?BANKED_ENTER_XDATA
   \   000005                ; Saved register size: 10
   \   000005                ; Auto size: 12
   \   000005   74F4         MOV     A,#-0xc
   \   000007   12....       LCALL   ?ALLOC_XSTACK8
    161            //HalLedBlink(HAL_LED_1,0,50,800);
    162            afAddrType_t my_DstAddr;
    163            my_DstAddr.addrMode = (afAddrMode_t)AddrBroadcast;
   \   00000A   7408         MOV     A,#0x8
   \   00000C   12....       LCALL   ?XSTACK_DISP0_8
   \   00000F   740F         MOV     A,#0xf
   \   000011   F0           MOVX    @DPTR,A
    164            my_DstAddr.endPoint = GENERICAPP_ENDPOINT;
   \   000012   7409         MOV     A,#0x9
   \   000014   12....       LCALL   ?XSTACK_DISP0_8
   \   000017   740A         MOV     A,#0xa
   \   000019   F0           MOVX    @DPTR,A
    165            my_DstAddr.addr.shortAddr = 0xFFFF;
   \   00001A   85..82       MOV     DPL,?XSP + 0
   \   00001D   85..83       MOV     DPH,?XSP + 1
   \   000020   74FF         MOV     A,#-0x1
   \   000022   F0           MOVX    @DPTR,A
   \   000023   A3           INC     DPTR
   \   000024   F0           MOVX    @DPTR,A
    166            AF_DataRequest( &my_DstAddr, &GenericApp_epDesc,
    167                                 GENERICAPP_CLUSTERID,
    168                                 osal_strlen(uartbuf)+1,
                                                    ^
Warning[Pe167]: argument of type "unsigned char *" is incompatible with
          parameter of type "char *"
    169                                 uartbuf,
    170                                 &GenericApp_TransID,
    171                                 AF_DISCV_ROUTE, AF_DEFAULT_RADIUS );
   \   000025                ; Setup parameters for call to function AF_DataRequest
   \   000025   75..1E       MOV     ?V0 + 0,#0x1e
   \   000028   78..         MOV     R0,#?V0 + 0
   \   00002A   12....       LCALL   ?PUSH_XSTACK_I_ONE
   \   00002D   75....       MOV     ?V0 + 0,#GenericApp_TransID & 0xff
   \   000030   75....       MOV     ?V0 + 1,#(GenericApp_TransID >> 8) & 0xff
   \   000033   78..         MOV     R0,#?V0 + 0
   \   000035   12....       LCALL   ?PUSH_XSTACK_I_TWO
   \   000038   75....       MOV     ?V0 + 0,#uartbuf & 0xff
   \   00003B   75....       MOV     ?V0 + 1,#(uartbuf >> 8) & 0xff
   \   00003E   78..         MOV     R0,#?V0 + 0
   \   000040   12....       LCALL   ?PUSH_XSTACK_I_TWO
   \   000043                ; Setup parameters for call to function osal_strlen
   \   000043   7A..         MOV     R2,#uartbuf & 0xff
   \   000045   7B..         MOV     R3,#(uartbuf >> 8) & 0xff
   \   000047   12....       LCALL   ??osal_strlen?relay
   \   00004A   EA           MOV     A,R2
   \   00004B   2401         ADD     A,#0x1
   \   00004D   F5..         MOV     ?V0 + 0,A
   \   00004F   EB           MOV     A,R3
   \   000050   3400         ADDC    A,#0x0
   \   000052   F5..         MOV     ?V0 + 1,A
   \   000054   78..         MOV     R0,#?V0 + 0
   \   000056   12....       LCALL   ?PUSH_XSTACK_I_TWO
   \   000059   75..01       MOV     ?V0 + 0,#0x1
   \   00005C   75..00       MOV     ?V0 + 1,#0x0
   \   00005F   78..         MOV     R0,#?V0 + 0
   \   000061   12....       LCALL   ?PUSH_XSTACK_I_TWO
   \   000064   7920         MOV     R1,#0x20
   \   000066   7C..         MOV     R4,#GenericApp_epDesc & 0xff
   \   000068   7D..         MOV     R5,#(GenericApp_epDesc >> 8) & 0xff
   \   00006A   7409         MOV     A,#0x9
   \   00006C   12....       LCALL   ?XSTACK_DISP0_8
   \   00006F   AA82         MOV     R2,DPL
   \   000071   AB83         MOV     R3,DPH
   \   000073   12....       LCALL   ??AF_DataRequest?relay
   \   000076   7409         MOV     A,#0x9
   \   000078   12....       LCALL   ?DEALLOC_XSTACK8
    172            HalLedBlink(HAL_LED_1,0,50,800);
   \   00007B                ; Setup parameters for call to function HalLedBlink
   \   00007B   7C20         MOV     R4,#0x20
   \   00007D   7D03         MOV     R5,#0x3
   \   00007F   7B32         MOV     R3,#0x32
   \   000081   7A00         MOV     R2,#0x0
   \   000083   7901         MOV     R1,#0x1
   \   000085   12....       LCALL   ??HalLedBlink?relay
    173          
    174          }
   \   000088   740C         MOV     A,#0xc
   \   00008A   12....       LCALL   ?DEALLOC_XSTACK8
   \   00008D   7F02         MOV     R7,#0x2
   \   00008F   02....       LJMP    ?BANKED_LEAVE_XDATA

   \                                 In  segment BANK_RELAYS, align 1
   \                     ??GenericApp_Init?relay:
   \   000000   12....       LCALL   ?BDISPATCH
   \   000003   ......       DC24    GenericApp_Init

   \                                 In  segment BANK_RELAYS, align 1
   \                     ??rxCB?relay:
   \   000000   12....       LCALL   ?BDISPATCH
   \   000003   ......       DC24    rxCB

   \                                 In  segment BANK_RELAYS, align 1
   \                     ??GenericApp_ProcessEvent?relay:
   \   000000   12....       LCALL   ?BDISPATCH
   \   000003   ......       DC24    GenericApp_ProcessEvent

   \                                 In  segment BANK_RELAYS, align 1
   \                     ??GenericApp_MessageMSGCB?relay:
   \   000000   12....       LCALL   ?BDISPATCH
   \   000003   ......       DC24    GenericApp_MessageMSGCB

   \                                 In  segment BANK_RELAYS, align 1
   \                     ??GenericApp_SendTheMessage?relay:
   \   000000   12....       LCALL   ?BDISPATCH
   \   000003   ......       DC24    GenericApp_SendTheMessage

   Maximum stack usage in bytes:

     Function                       ISTACK PSTACK XSTACK
     --------                       ------ ------ ------
     GenericApp_Init                    0      0     38
       -> afRegister                    0      0     76
       -> HalUARTOpen                   0      0     76
     GenericApp_MessageMSGCB            0      0     36
       -> osal_memcpy                   0      0     48
       -> HalUARTWrite                  0      0     42
       -> HalLedBlink                   0      0     42
     GenericApp_ProcessEvent            0      0     12
       -> osal_msg_receive              0      0     24
       -> GenericApp_MessageMSGCB       0      0     24
       -> osal_msg_deallocate           0      0     24
       -> osal_msg_receive              0      0     24
     GenericApp_SendTheMessage          0      0     31
       -> osal_strlen                   0      0     54
       -> AF_DataRequest                0      0     62
       -> HalLedBlink                   0      0     44
     rxCB                               2      0      0
       -> HalUARTRead                   4      0      0
       -> GenericApp_SendTheMessage     4      0      0


   Segment part sizes:

     Function/Label                    Bytes
     --------------                    -----
     uartbuf                              2
     GenericApp_ClusterList               2
     GenericApp_SimpleDesc               12
     GenericApp_epDesc                    6
     GenericApp_TaskID                    1
     GenericApp_TransID                   1
     GenericApp_Init                    110
     rxCB                                27
     GenericApp_ProcessEvent             77
     GenericApp_MessageMSGCB            115
     GenericApp_SendTheMessage          146
     ??GenericApp_Init?relay              6
     ??rxCB?relay                         6
     ??GenericApp_ProcessEvent?relay      6
     ??GenericApp_MessageMSGCB?relay      6
     ??GenericApp_SendTheMessage?relay    6

 
 475 bytes in segment BANKED_CODE
  30 bytes in segment BANK_RELAYS
  14 bytes in segment XDATA_ROM_C
  10 bytes in segment XDATA_Z
 
 505 bytes of CODE  memory
  14 bytes of CONST memory
  10 bytes of XDATA memory

Errors: none
Warnings: 1
